	.file	"thttpd.c"
	.text
.Ltext0:
	.p2align 4,,15
	.type	handle_hup, @function
handle_hup:
.LASANPC4:
.LFB4:
	.file 1 "thttpd.c"
	.loc 1 238 5
	.cfi_startproc
.LVL0:
	.loc 1 239 5
	.loc 1 247 5
	.loc 1 247 13 is_stmt 0
	movl	$1, got_hup(%rip)
	.loc 1 250 5 is_stmt 1
	.loc 1 251 5 is_stmt 0
	ret
	.cfi_endproc
.LFE4:
	.size	handle_hup, .-handle_hup
	.section	.rodata
	.align 32
.LC0:
	.string	"  thttpd - %ld connections (%g/sec), %d max simultaneous, %lld bytes (%g/sec), %d httpd_conns allocated"
	.zero	56
	.text
	.p2align 4,,15
	.type	thttpd_logstats, @function
thttpd_logstats:
.LASANPC35:
.LFB35:
	.loc 1 2179 5 is_stmt 1
	.cfi_startproc
.LVL1:
	.loc 1 2180 5
	.loc 1 2179 5 is_stmt 0
	subq	$8, %rsp
	.cfi_def_cfa_offset 16
	.loc 1 2180 8
	testq	%rdi, %rdi
	jle	.L4
	.loc 1 2181 2 is_stmt 1
	.loc 1 2185 6 is_stmt 0
	movq	stats_bytes(%rip), %r8
	.loc 1 2185 26
	pxor	%xmm2, %xmm2
	.loc 1 2185 6
	pxor	%xmm1, %xmm1
	.loc 1 2183 25
	pxor	%xmm0, %xmm0
	.loc 1 2185 26
	cvtsi2ssq	%rdi, %xmm2
	.loc 1 2181 2
	movl	$.LC0, %esi
	movl	$6, %edi
.LVL2:
	.loc 1 2183 25
	movq	stats_connections(%rip), %rdx
	.loc 1 2185 6
	cvtsi2ssq	%r8, %xmm1
	.loc 1 2181 2
	movl	stats_simultaneous(%rip), %ecx
	movl	$2, %eax
	movl	httpd_conn_count(%rip), %r9d
	.loc 1 2183 25
	cvtsi2ssq	%rdx, %xmm0
	.loc 1 2185 26
	divss	%xmm2, %xmm1
	.loc 1 2183 51
	divss	%xmm2, %xmm0
	.loc 1 2181 2
	cvtss2sd	%xmm1, %xmm1
	cvtss2sd	%xmm0, %xmm0
	call	syslog
.LVL3:
.L4:
	.loc 1 2186 5 is_stmt 1
	.loc 1 2186 23 is_stmt 0
	movq	$0, stats_connections(%rip)
	.loc 1 2187 5 is_stmt 1
	.loc 1 2187 17 is_stmt 0
	movq	$0, stats_bytes(%rip)
	.loc 1 2188 5 is_stmt 1
	.loc 1 2188 24 is_stmt 0
	movl	$0, stats_simultaneous(%rip)
	.loc 1 2189 5
	addq	$8, %rsp
	.cfi_def_cfa_offset 8
	ret
	.cfi_endproc
.LFE35:
	.size	thttpd_logstats, .-thttpd_logstats
	.section	.rodata
	.align 32
.LC1:
	.string	"throttle #%d '%.80s' rate %ld greatly exceeding limit %ld; %d sending"
	.zero	58
	.align 32
.LC2:
	.string	"throttle #%d '%.80s' rate %ld exceeding limit %ld; %d sending"
	.zero	34
	.align 32
.LC3:
	.string	"throttle #%d '%.80s' rate %ld lower than minimum %ld; %d sending"
	.zero	63
	.text
	.p2align 4,,15
	.type	update_throttles, @function
update_throttles:
.LASANPC25:
.LFB25:
	.loc 1 1933 5 is_stmt 1
	.cfi_startproc
.LVL4:
	.loc 1 1934 5
	.loc 1 1935 5
	.loc 1 1936 5
	.loc 1 1937 5
	.loc 1 1942 5
	movl	numthrottles(%rip), %r11d
	.loc 1 1933 5 is_stmt 0
	pushq	%r12
	.cfi_def_cfa_offset 16
	.cfi_offset 12, -16
	movabsq	$6148914691236517206, %r12
	pushq	%rbp
	.cfi_def_cfa_offset 24
	.cfi_offset 6, -24
	xorl	%ebp, %ebp
	pushq	%rbx
	.cfi_def_cfa_offset 32
	.cfi_offset 3, -32
	xorl	%ebx, %ebx
	.loc 1 1942 5
	testl	%r11d, %r11d
	jg	.L7
	jmp	.L24
.LVL5:
	.p2align 4,,10
	.p2align 3
.L109:
	.loc 1 1949 6 is_stmt 1
	movq	%rcx, %rsi
	.loc 1 1949 60 is_stmt 0
	leaq	(%r9,%r9), %rdx
	shrq	$3, %rsi
	cmpb	$0, 2147450880(%rsi)
	jne	.L100
	movq	(%rcx), %rcx
	.loc 1 1949 9
	cmpq	%rdx, %r8
	jle	.L17
	.loc 1 1950 3 is_stmt 1
	subq	$8, %rsp
	.cfi_def_cfa_offset 40
	movl	$5, %edi
	movl	%ebx, %edx
	movl	$.LC1, %esi
	pushq	%rax
	.cfi_def_cfa_offset 48
	xorl	%eax, %eax
	call	syslog
.LVL6:
	movq	throttles(%rip), %rcx
	popq	%r9
	.cfi_def_cfa_offset 40
	popq	%r10
	.cfi_def_cfa_offset 32
	addq	%rbp, %rcx
	leaq	24(%rcx), %rdi
	movq	%rdi, %rax
	shrq	$3, %rax
	cmpb	$0, 2147450880(%rax)
	jne	.L101
.L19:
	movq	24(%rcx), %r8
.L13:
	.loc 1 1954 2
	.loc 1 1954 45 is_stmt 0
	leaq	16(%rcx), %rdi
	movq	%rdi, %rax
	shrq	$3, %rax
	cmpb	$0, 2147450880(%rax)
	jne	.L102
	movq	16(%rcx), %r9
	.loc 1 1954 5
	cmpq	%r8, %r9
	jle	.L21
	.loc 1 1954 74 discriminator 1
	leaq	40(%rcx), %rdi
	movq	%rdi, %rax
	shrq	$3, %rax
	movzbl	2147450880(%rax), %eax
	testb	%al, %al
	je	.L22
	cmpb	$3, %al
	jle	.L103
.L22:
	movl	40(%rcx), %eax
	.loc 1 1954 56 discriminator 1
	testl	%eax, %eax
	jne	.L104
.L21:
	.loc 1 1942 42 discriminator 2
	addl	$1, %ebx
.LVL7:
	addq	$48, %rbp
	.loc 1 1942 5 discriminator 2
	cmpl	%ebx, numthrottles(%rip)
	jle	.L24
.LVL8:
.L7:
	.loc 1 1944 2 is_stmt 1
	.loc 1 1944 40 is_stmt 0
	movq	throttles(%rip), %rcx
	addq	%rbp, %rcx
	.loc 1 1944 46
	leaq	24(%rcx), %rdi
.LVL9:
	movq	%rdi, %rax
	shrq	$3, %rax
	cmpb	$0, 2147450880(%rax)
	jne	.L105
	.loc 1 1944 69
	leaq	32(%rcx), %rdi
	.loc 1 1944 29
	movq	24(%rcx), %rax
	.loc 1 1944 69
	movq	%rdi, %rdx
	shrq	$3, %rdx
	.loc 1 1944 29
	addq	%rax, %rax
	.loc 1 1944 69
	cmpb	$0, 2147450880(%rdx)
	jne	.L106
	.loc 1 1944 86
	movq	32(%rcx), %rdx
	.loc 1 1947 45
	leaq	8(%rcx), %rdi
	.loc 1 1945 34
	movq	$0, 32(%rcx)
	.loc 1 1944 86
	movq	%rdx, %rsi
	shrq	$63, %rsi
	addq	%rdx, %rsi
	sarq	%rsi
	.loc 1 1944 52
	addq	%rax, %rsi
	.loc 1 1944 104
	movq	%rsi, %rax
	sarq	$63, %rsi
	imulq	%r12
	.loc 1 1947 45
	movq	%rdi, %rax
	shrq	$3, %rax
	.loc 1 1944 104
	subq	%rsi, %rdx
	.loc 1 1947 45
	cmpb	$0, 2147450880(%rax)
	.loc 1 1944 104
	movq	%rdx, %r8
	.loc 1 1944 23
	movq	%rdx, 24(%rcx)
	.loc 1 1945 2 is_stmt 1
	.loc 1 1947 2
	.loc 1 1947 45 is_stmt 0
	jne	.L107
	movq	8(%rcx), %r9
	.loc 1 1947 5
	cmpq	%r9, %rdx
	jle	.L13
	.loc 1 1947 74 discriminator 1
	leaq	40(%rcx), %rdi
	movq	%rdi, %rax
	shrq	$3, %rax
	movzbl	2147450880(%rax), %eax
	testb	%al, %al
	je	.L14
	cmpb	$3, %al
	jle	.L108
.L14:
	movl	40(%rcx), %eax
	.loc 1 1947 56 discriminator 1
	testl	%eax, %eax
	jne	.L109
	.loc 1 1954 2 is_stmt 1
	.loc 1 1954 45 is_stmt 0
	addq	$16, %rcx
	movq	%rcx, %rax
	shrq	$3, %rax
	cmpb	$0, 2147450880(%rax)
	je	.L21
	movq	%rcx, %rdi
	call	__asan_report_load8
.LVL10:
	.p2align 4,,10
	.p2align 3
.L104:
	.loc 1 1956 6 is_stmt 1
	movq	%rcx, %rdx
	shrq	$3, %rdx
	cmpb	$0, 2147450880(%rdx)
	jne	.L110
	subq	$8, %rsp
	.cfi_def_cfa_offset 40
	movq	(%rcx), %rcx
	movl	%ebx, %edx
	movl	$.LC3, %esi
	pushq	%rax
	.cfi_def_cfa_offset 48
	movl	$5, %edi
	xorl	%eax, %eax
	.loc 1 1942 42 is_stmt 0
	addl	$1, %ebx
.LVL11:
	addq	$48, %rbp
	.loc 1 1956 6
	call	syslog
.LVL12:
	.loc 1 1942 5
	cmpl	%ebx, numthrottles(%rip)
	.loc 1 1956 6
	popq	%rax
	.cfi_def_cfa_offset 40
	popq	%rdx
	.cfi_def_cfa_offset 32
	.loc 1 1942 5
	jg	.L7
.LVL13:
	.p2align 4,,10
	.p2align 3
.L24:
	.loc 1 1963 26
	movl	max_connects(%rip), %eax
	.loc 1 1963 5
	testl	%eax, %eax
	jle	.L6
	subl	$1, %eax
	movq	connects(%rip), %r8
	.loc 1 1972 16
	movq	throttles(%rip), %r11
	.loc 1 1968 19
	movq	$-1, %rbp
	leaq	(%rax,%rax,8), %rax
	salq	$4, %rax
	leaq	144(%r8,%rax), %rbx
	jmp	.L37
.LVL14:
	.p2align 4,,10
	.p2align 3
.L27:
	addq	$144, %r8
.LVL15:
	.loc 1 1963 5 discriminator 2
	cmpq	%rbx, %r8
	je	.L6
.LVL16:
.L37:
	.loc 1 1965 2 is_stmt 1
	.loc 1 1966 2
	.loc 1 1966 8 is_stmt 0
	movq	%r8, %rax
	shrq	$3, %rax
	movzbl	2147450880(%rax), %eax
	testb	%al, %al
	je	.L25
	cmpb	$3, %al
	jle	.L111
.L25:
	.loc 1 1966 37
	movl	(%r8), %eax
	subl	$2, %eax
	.loc 1 1966 5
	cmpl	$1, %eax
	ja	.L27
	.loc 1 1968 6 is_stmt 1
	.loc 1 1968 19 is_stmt 0
	leaq	64(%r8), %rdi
.LVL17:
	movq	%rdi, %rax
	shrq	$3, %rax
	cmpb	$0, 2147450880(%rax)
	jne	.L112
	.loc 1 1969 30
	leaq	56(%r8), %rdi
	.loc 1 1968 19
	movq	%rbp, 64(%r8)
	.loc 1 1969 6 is_stmt 1
.LVL18:
	.loc 1 1969 30 is_stmt 0
	movq	%rdi, %rax
	shrq	$3, %rax
	movzbl	2147450880(%rax), %eax
	testb	%al, %al
	je	.L29
	cmpb	$3, %al
	jle	.L113
.L29:
	movl	56(%r8), %r10d
	.loc 1 1969 6
	testl	%r10d, %r10d
	jle	.L27
	.loc 1 1971 3 is_stmt 1
	.loc 1 1971 8 is_stmt 0
	leaq	16(%r8), %rdi
	movq	%rdi, %rax
	shrq	$3, %rax
	movzbl	2147450880(%rax), %eax
	testb	%al, %al
	je	.L38
	cmpb	$3, %al
	jle	.L114
.L38:
.LVL19:
	.loc 1 1972 3 is_stmt 1
	.loc 1 1972 16 is_stmt 0
	movslq	16(%r8), %rax
	leaq	(%rax,%rax,2), %rcx
	salq	$4, %rcx
	addq	%r11, %rcx
	.loc 1 1972 22
	leaq	8(%rcx), %rdi
	movq	%rdi, %rax
	shrq	$3, %rax
	cmpb	$0, 2147450880(%rax)
	jne	.L115
	.loc 1 1972 50
	leaq	40(%rcx), %rdi
	.loc 1 1972 22
	movq	8(%rcx), %rax
	.loc 1 1972 50
	movq	%rdi, %rdx
	shrq	$3, %rdx
	movzbl	2147450880(%rdx), %edx
	testb	%dl, %dl
	je	.L40
	cmpb	$3, %dl
	jle	.L116
.L40:
	movslq	40(%rcx), %rcx
	.loc 1 1972 5
	cqto
	leaq	20(%r8), %rsi
	idivq	%rcx
	movq	%rax, %r9
.LVL20:
	.loc 1 1973 3 is_stmt 1
	leal	-1(%r10), %eax
.LVL21:
	leaq	(%rsi,%rax,4), %r10
	jmp	.L41
.LVL22:
	.p2align 4,,10
	.p2align 3
.L121:
	.loc 1 1976 7
	.loc 1 1976 22 is_stmt 0
	cmpq	%rax, %r9
	cmovg	%rax, %r9
.L35:
	addq	$4, %rsi
.LVL23:
.L41:
	.loc 1 1969 6 discriminator 2
	cmpq	%r10, %rsi
	je	.L117
	.loc 1 1971 3 is_stmt 1
	.loc 1 1971 8 is_stmt 0
	movq	%rsi, %rax
	movq	%rsi, %rcx
	shrq	$3, %rax
	andl	$7, %ecx
	movzbl	2147450880(%rax), %eax
	addl	$3, %ecx
	cmpb	%al, %cl
	jl	.L32
	testb	%al, %al
	jne	.L118
.L32:
.LVL24:
	.loc 1 1972 3 is_stmt 1
	.loc 1 1972 16 is_stmt 0
	movslq	(%rsi), %rax
	leaq	(%rax,%rax,2), %rcx
	salq	$4, %rcx
	addq	%r11, %rcx
	.loc 1 1972 22
	leaq	8(%rcx), %rdi
	movq	%rdi, %rax
	shrq	$3, %rax
	cmpb	$0, 2147450880(%rax)
	jne	.L119
	.loc 1 1972 50
	leaq	40(%rcx), %rdi
	.loc 1 1972 22
	movq	8(%rcx), %rax
	.loc 1 1972 50
	movq	%rdi, %rdx
	shrq	$3, %rdx
	movzbl	2147450880(%rdx), %edx
	testb	%dl, %dl
	je	.L34
	cmpb	$3, %dl
	jle	.L120
.L34:
	movslq	40(%rcx), %rcx
	.loc 1 1972 5
	cqto
	idivq	%rcx
.LVL25:
	.loc 1 1973 3 is_stmt 1
	.loc 1 1973 6 is_stmt 0
	cmpq	$-1, %r9
	jne	.L121
	.loc 1 1972 5
	movq	%rax, %r9
	jmp	.L35
.LVL26:
	.p2align 4,,10
	.p2align 3
.L17:
	.loc 1 1952 3 is_stmt 1
	subq	$8, %rsp
	.cfi_def_cfa_offset 40
	movl	$.LC2, %esi
	movl	$6, %edi
	movl	%ebx, %edx
	pushq	%rax
	.cfi_def_cfa_offset 48
	xorl	%eax, %eax
	call	syslog
.LVL27:
	movq	throttles(%rip), %rcx
	popq	%rsi
	.cfi_def_cfa_offset 40
	popq	%r8
	.cfi_def_cfa_offset 32
	addq	%rbp, %rcx
	leaq	24(%rcx), %rdi
	movq	%rdi, %rax
	shrq	$3, %rax
	cmpb	$0, 2147450880(%rax)
	je	.L19
	call	__asan_report_load8
.LVL28:
	.p2align 4,,10
	.p2align 3
.L117:
	movq	%r9, 64(%r8)
	addq	$144, %r8
.LVL29:
	.loc 1 1963 5 is_stmt 0
	cmpq	%rbx, %r8
	jne	.L37
.LVL30:
.L6:
	.loc 1 1980 5
	popq	%rbx
	.cfi_remember_state
	.cfi_def_cfa_offset 24
	popq	%rbp
	.cfi_def_cfa_offset 16
	popq	%r12
	.cfi_def_cfa_offset 8
	ret
.LVL31:
.L120:
	.cfi_restore_state
	.loc 1 1972 50
	call	__asan_report_load4
.LVL32:
.L119:
	.loc 1 1972 22
	call	__asan_report_load8
.LVL33:
.L118:
	.loc 1 1971 8
	movq	%rsi, %rdi
	call	__asan_report_load4
.LVL34:
.L105:
	.loc 1 1944 46
	call	__asan_report_load8
.LVL35:
.L107:
	.loc 1 1947 45
	call	__asan_report_load8
.LVL36:
.L106:
	.loc 1 1944 69
	call	__asan_report_load8
.LVL37:
.L111:
	.loc 1 1966 8
	movq	%r8, %rdi
.LVL38:
	call	__asan_report_load4
.LVL39:
.L102:
	.loc 1 1954 45
	call	__asan_report_load8
.LVL40:
.L100:
	movq	%rcx, %rdi
	call	__asan_report_load8
.LVL41:
.L108:
	.loc 1 1947 74
	call	__asan_report_load4
.LVL42:
.L103:
	.loc 1 1954 74
	call	__asan_report_load4
.LVL43:
.L112:
	.loc 1 1968 19
	call	__asan_report_store8
.LVL44:
.L113:
	.loc 1 1969 30
	call	__asan_report_load4
.LVL45:
.L101:
	call	__asan_report_load8
.LVL46:
.L110:
	.loc 1 1956 6
	movq	%rcx, %rdi
	call	__asan_report_load8
.LVL47:
.L116:
	.loc 1 1972 50
	call	__asan_report_load4
.LVL48:
.L115:
	.loc 1 1972 22
	call	__asan_report_load8
.LVL49:
.L114:
	.loc 1 1971 8
	call	__asan_report_load4
.LVL50:
	.cfi_endproc
.LFE25:
	.size	update_throttles, .-update_throttles
	.section	.rodata
	.align 32
.LC4:
	.string	"%s: no value required for %s option\n"
	.zero	59
	.text
	.p2align 4,,15
	.type	no_value_required, @function
no_value_required:
.LASANPC14:
.LFB14:
	.loc 1 1207 5 is_stmt 1
	.cfi_startproc
.LVL51:
	.loc 1 1208 5
	.loc 1 1208 8 is_stmt 0
	testq	%rsi, %rsi
	jne	.L128
	ret
.L128:
	.loc 1 1207 5
	pushq	%rax
	.cfi_def_cfa_offset 16
	.loc 1 1210 9
	movl	$stderr, %eax
	movq	%rdi, %rcx
	.loc 1 1210 2 is_stmt 1
	movq	argv0(%rip), %rdx
	.loc 1 1210 9 is_stmt 0
	shrq	$3, %rax
	cmpb	$0, 2147450880(%rax)
	jne	.L129
.LVL52:
	movq	stderr(%rip), %rdi
	movl	$.LC4, %esi
.LVL53:
	xorl	%eax, %eax
	call	fprintf
.LVL54:
	.loc 1 1213 2 is_stmt 1
	call	__asan_handle_no_return
.LVL55:
	movl	$1, %edi
	call	exit
.LVL56:
.L129:
	.loc 1 1210 9 is_stmt 0
	movl	$stderr, %edi
	call	__asan_report_load8
.LVL57:
	.cfi_endproc
.LFE14:
	.size	no_value_required, .-no_value_required
	.section	.rodata
	.align 32
.LC5:
	.string	"%s: value required for %s option\n"
	.zero	62
	.text
	.p2align 4,,15
	.type	value_required, @function
value_required:
.LASANPC13:
.LFB13:
	.loc 1 1195 5 is_stmt 1
	.cfi_startproc
.LVL58:
	.loc 1 1196 5
	.loc 1 1196 8 is_stmt 0
	testq	%rsi, %rsi
	je	.L136
	ret
.L136:
	.loc 1 1195 5
	pushq	%rax
	.cfi_def_cfa_offset 16
	.loc 1 1198 9
	movl	$stderr, %eax
	movq	%rdi, %rcx
	.loc 1 1198 2 is_stmt 1
	movq	argv0(%rip), %rdx
	.loc 1 1198 9 is_stmt 0
	shrq	$3, %rax
	cmpb	$0, 2147450880(%rax)
	jne	.L137
.LVL59:
	movq	stderr(%rip), %rdi
	movl	$.LC5, %esi
.LVL60:
	xorl	%eax, %eax
	call	fprintf
.LVL61:
	.loc 1 1200 2 is_stmt 1
	call	__asan_handle_no_return
.LVL62:
	movl	$1, %edi
	call	exit
.LVL63:
.L137:
	.loc 1 1198 9 is_stmt 0
	movl	$stderr, %edi
	call	__asan_report_load8
.LVL64:
	.cfi_endproc
.LFE13:
	.size	value_required, .-value_required
	.section	.rodata
	.align 32
.LC6:
	.string	"usage:  %s [-C configfile] [-p port] [-d dir] [-r|-nor] [-dd data_dir] [-s|-nos] [-v|-nov] [-g|-nog] [-u user] [-c cgipat] [-t throttles] [-h host] [-l logfile] [-i pidfile] [-T charset] [-P P3P] [-M maxage] [-V] [-D]\n"
	.zero	37
	.text
	.p2align 4,,15
	.type	usage, @function
usage:
.LASANPC11:
.LFB11:
	.loc 1 990 5 is_stmt 1
	.cfi_startproc
	.loc 1 991 5
	.loc 1 991 12 is_stmt 0
	movl	$stderr, %eax
	.loc 1 990 5
	subq	$8, %rsp
	.cfi_def_cfa_offset 16
	.loc 1 991 5
	movq	argv0(%rip), %rdx
	.loc 1 991 12
	shrq	$3, %rax
	cmpb	$0, 2147450880(%rax)
	jne	.L141
	movq	stderr(%rip), %rdi
	movl	$.LC6, %esi
	xorl	%eax, %eax
	call	fprintf
.LVL65:
	.loc 1 994 5 is_stmt 1
	call	__asan_handle_no_return
.LVL66:
	movl	$1, %edi
	call	exit
.LVL67:
.L141:
	.loc 1 991 12 is_stmt 0
	movl	$stderr, %edi
	call	__asan_report_load8
.LVL68:
	.cfi_endproc
.LFE11:
	.size	usage, .-usage
	.globl	__asan_stack_malloc_1
	.section	.rodata.str1.1,"aMS",@progbits,1
.LC7:
	.string	"1 32 8 11 client_data "
	.text
	.p2align 4,,15
	.type	wakeup_connection, @function
wakeup_connection:
.LASANPC30:
.LFB30:
	.loc 1 2105 5 is_stmt 1
	.cfi_startproc
.LVL69:
	pushq	%r12
	.cfi_def_cfa_offset 16
	.cfi_offset 12, -16
	movq	%rdi, %rsi
.LVL70:
	pushq	%rbp
	.cfi_def_cfa_offset 24
	.cfi_offset 6, -24
	pushq	%rbx
	.cfi_def_cfa_offset 32
	.cfi_offset 3, -32
	subq	$112, %rsp
	.cfi_def_cfa_offset 144
	movl	__asan_option_detect_stack_use_after_return(%rip), %eax
	leaq	16(%rsp), %rbx
	movq	%rbx, %r12
	testl	%eax, %eax
	jne	.L165
.L142:
	.loc 1 2108 7 is_stmt 0
	leaq	32(%rbx), %rdi
.LVL71:
	.loc 1 2105 5
	movq	%rbx, %rbp
	movq	$1102416563, (%rbx)
	.loc 1 2108 7
	movq	%rdi, %rax
	.loc 1 2105 5
	shrq	$3, %rbp
	movq	$.LC7, 8(%rbx)
	.loc 1 2108 7
	shrq	$3, %rax
	.loc 1 2105 5
	movq	$.LASANPC30, 16(%rbx)
	movl	$-235802127, 2147450880(%rbp)
	movl	$-218959360, 2147450884(%rbp)
	movl	$-202116109, 2147450888(%rbp)
	.loc 1 2108 7
	cmpb	$0, 2147450880(%rax)
.LVL72:
	.loc 1 2104 31
	movq	%rsi, 32(%rbx)
	.loc 1 2106 5 is_stmt 1
	.loc 1 2108 5
	.loc 1 2108 7 is_stmt 0
	jne	.L166
.LVL73:
	.loc 1 2109 5 is_stmt 1
	.loc 1 2109 21 is_stmt 0
	leaq	96(%rsi), %rdi
	movq	%rdi, %rax
	shrq	$3, %rax
	cmpb	$0, 2147450880(%rax)
	jne	.L167
	.loc 1 2110 11
	movq	%rsi, %rax
	.loc 1 2109 21
	movq	$0, 96(%rsi)
	.loc 1 2110 5 is_stmt 1
	.loc 1 2110 11 is_stmt 0
	shrq	$3, %rax
	movzbl	2147450880(%rax), %eax
	testb	%al, %al
	je	.L148
	cmpb	$3, %al
	jle	.L168
.L148:
	.loc 1 2110 8
	cmpl	$3, (%rsi)
	je	.L169
.LVL74:
.L145:
	.loc 1 2105 5
	cmpq	%rbx, %r12
	jne	.L170
	movq	$0, 2147450880(%rbp)
	movl	$0, 2147450888(%rbp)
.L144:
	.loc 1 2115 5
	addq	$112, %rsp
	.cfi_remember_state
	.cfi_def_cfa_offset 32
	popq	%rbx
	.cfi_def_cfa_offset 24
	popq	%rbp
	.cfi_def_cfa_offset 16
	popq	%r12
	.cfi_def_cfa_offset 8
	ret
.LVL75:
	.p2align 4,,10
	.p2align 3
.L169:
	.cfi_restore_state
	.loc 1 2112 2 is_stmt 1
	.loc 1 2113 19 is_stmt 0
	leaq	8(%rsi), %rdi
	.loc 1 2112 16
	movl	$2, (%rsi)
	.loc 1 2113 2 is_stmt 1
	.loc 1 2113 19 is_stmt 0
	movq	%rdi, %rax
	shrq	$3, %rax
	cmpb	$0, 2147450880(%rax)
	jne	.L171
	movq	8(%rsi), %rax
	.loc 1 2113 2
	leaq	704(%rax), %rdi
	movq	%rdi, %rdx
	shrq	$3, %rdx
	movzbl	2147450880(%rdx), %edx
	testb	%dl, %dl
	je	.L151
	cmpb	$3, %dl
	jle	.L172
.L151:
	movl	704(%rax), %edi
	movl	$1, %edx
	call	fdwatch_add_fd
.LVL76:
	.loc 1 2115 5
	jmp	.L145
.LVL77:
.L168:
	.loc 1 2110 11
	movq	%rsi, %rdi
	call	__asan_report_load4
.LVL78:
.L172:
	.loc 1 2113 2
	call	__asan_report_load4
.LVL79:
.L167:
	.loc 1 2109 21
	call	__asan_report_store8
.LVL80:
.L170:
	.loc 1 2105 5
	movabsq	$-723401728380766731, %rax
	movq	$1172321806, (%rbx)
	movq	%rax, 2147450880(%rbp)
	movl	$-168430091, 2147450888(%rbp)
	jmp	.L144
.L166:
	.loc 1 2108 7
	call	__asan_report_load8
.LVL81:
.L165:
	movq	%rdi, 8(%rsp)
	.loc 1 2105 5
	movl	$96, %edi
.LVL82:
	call	__asan_stack_malloc_1
.LVL83:
	movq	8(%rsp), %rsi
	testq	%rax, %rax
	cmovne	%rax, %rbx
	jmp	.L142
.LVL84:
.L171:
	.loc 1 2113 19
	call	__asan_report_load8
.LVL85:
	.cfi_endproc
.LFE30:
	.size	wakeup_connection, .-wakeup_connection
	.section	.rodata.str1.1
.LC8:
	.string	"1 32 16 2 tv "
	.section	.rodata
	.align 32
.LC9:
	.string	"up %ld seconds, stats for %ld seconds:"
	.zero	57
	.text
	.p2align 4,,15
	.type	logstats, @function
logstats:
.LASANPC34:
.LFB34:
	.loc 1 2149 5 is_stmt 1
	.cfi_startproc
.LVL86:
	pushq	%r13
	.cfi_def_cfa_offset 16
	.cfi_offset 13, -16
	pushq	%r12
	.cfi_def_cfa_offset 24
	.cfi_offset 12, -24
	pushq	%rbp
	.cfi_def_cfa_offset 32
	.cfi_offset 6, -32
	pushq	%rbx
	.cfi_def_cfa_offset 40
	.cfi_offset 3, -40
	movq	%rdi, %rbx
	subq	$104, %rsp
	.cfi_def_cfa_offset 144
	movl	__asan_option_detect_stack_use_after_return(%rip), %eax
	movq	%rsp, %rbp
	movq	%rbp, %r13
	testl	%eax, %eax
	jne	.L181
.LVL87:
.L173:
	.loc 1 2150 5
	.loc 1 2151 5
	.loc 1 2152 5
	.loc 1 2154 5
	.loc 1 2149 5 is_stmt 0
	movq	%rbp, %r12
	movq	$1102416563, 0(%rbp)
	shrq	$3, %r12
	movq	$.LC8, 8(%rbp)
	movq	$.LASANPC34, 16(%rbp)
	movl	$-235802127, 2147450880(%r12)
	movl	$-219021312, 2147450884(%r12)
	movl	$-202116109, 2147450888(%r12)
	.loc 1 2154 8
	testq	%rbx, %rbx
	je	.L182
.LVL88:
.L177:
	.loc 1 2159 5 is_stmt 1
	.loc 1 2159 9 is_stmt 0
	movq	%rbx, %rax
	shrq	$3, %rax
	cmpb	$0, 2147450880(%rax)
	jne	.L183
	movq	(%rbx), %rax
.LVL89:
	.loc 1 2160 5 is_stmt 1
	.loc 1 2163 13 is_stmt 0
	movl	$1, %ecx
	.loc 1 2165 5
	movl	$.LC9, %esi
	movl	$6, %edi
	.loc 1 2160 13
	movq	%rax, %rdx
	.loc 1 2163 13
	movq	%rax, %rbx
.LVL90:
	.loc 1 2160 13
	subq	start_time(%rip), %rdx
.LVL91:
	.loc 1 2161 5 is_stmt 1
	.loc 1 2162 5
	.loc 1 2163 13 is_stmt 0
	subq	stats_time(%rip), %rbx
.LVL92:
	cmove	%rcx, %rbx
.LVL93:
	.loc 1 2164 5 is_stmt 1
	.loc 1 2164 16 is_stmt 0
	movq	%rax, stats_time(%rip)
	.loc 1 2165 5 is_stmt 1
	xorl	%eax, %eax
.LVL94:
	movq	%rbx, %rcx
	call	syslog
.LVL95:
	.loc 1 2168 5
	movq	%rbx, %rdi
	call	thttpd_logstats
.LVL96:
	.loc 1 2169 5
	movq	%rbx, %rdi
	call	httpd_logstats
.LVL97:
	.loc 1 2170 5
	movq	%rbx, %rdi
	call	mmc_logstats
.LVL98:
	.loc 1 2171 5
	movq	%rbx, %rdi
	call	fdwatch_logstats
.LVL99:
	.loc 1 2172 5
	movq	%rbx, %rdi
	call	tmr_logstats
.LVL100:
	.loc 1 2149 5 is_stmt 0
	cmpq	%rbp, %r13
	jne	.L184
	movq	$0, 2147450880(%r12)
	movl	$0, 2147450888(%r12)
.L175:
	.loc 1 2173 5
	addq	$104, %rsp
	.cfi_remember_state
	.cfi_def_cfa_offset 40
	popq	%rbx
	.cfi_def_cfa_offset 32
.LVL101:
	popq	%rbp
	.cfi_def_cfa_offset 24
	popq	%r12
	.cfi_def_cfa_offset 16
	popq	%r13
	.cfi_def_cfa_offset 8
	ret
.LVL102:
	.p2align 4,,10
	.p2align 3
.L182:
	.cfi_restore_state
	.loc 1 2156 2 is_stmt 1
	.loc 1 2156 9 is_stmt 0
	leaq	32(%rbp), %rbx
.LVL103:
	xorl	%esi, %esi
	movq	%rbx, %rdi
	call	gettimeofday
.LVL104:
	.loc 1 2157 2 is_stmt 1
	jmp	.L177
.LVL105:
.L183:
	.loc 1 2159 9 is_stmt 0
	movq	%rbx, %rdi
	call	__asan_report_load8
.LVL106:
.L181:
	.loc 1 2149 5
	movl	$96, %edi
	call	__asan_stack_malloc_1
.LVL107:
	testq	%rax, %rax
	cmovne	%rax, %rbp
	jmp	.L173
.LVL108:
.L184:
	movabsq	$-723401728380766731, %rax
	movq	$1172321806, 0(%rbp)
	movq	%rax, 2147450880(%r12)
	movl	$-168430091, 2147450888(%r12)
	jmp	.L175
	.cfi_endproc
.LFE34:
	.size	logstats, .-logstats
	.p2align 4,,15
	.type	show_stats, @function
show_stats:
.LASANPC33:
.LFB33:
	.loc 1 2140 5 is_stmt 1
	.cfi_startproc
.LVL109:
	.loc 1 2141 5
	movq	%rsi, %rdi
.LVL110:
	jmp	logstats
.LVL111:
	.cfi_endproc
.LFE33:
	.size	show_stats, .-show_stats
	.p2align 4,,15
	.type	handle_usr2, @function
handle_usr2:
.LASANPC6:
.LFB6:
	.loc 1 282 5
	.cfi_startproc
.LVL112:
	.loc 1 283 5
	.loc 1 282 5 is_stmt 0
	pushq	%rbp
	.cfi_def_cfa_offset 16
	.cfi_offset 6, -16
	pushq	%rbx
	.cfi_def_cfa_offset 24
	.cfi_offset 3, -24
	subq	$8, %rsp
	.cfi_def_cfa_offset 32
	.loc 1 283 24
	call	__errno_location
.LVL113:
	movq	%rax, %rbx
	.loc 1 283 15
	shrq	$3, %rax
	movzbl	2147450880(%rax), %edx
	movq	%rbx, %rax
	andl	$7, %eax
	addl	$3, %eax
	cmpb	%dl, %al
	jl	.L187
	testb	%dl, %dl
	jne	.L202
.L187:
	.loc 1 290 5
	xorl	%edi, %edi
	.loc 1 283 15
	movl	(%rbx), %ebp
.LVL114:
	.loc 1 290 5 is_stmt 1
	call	logstats
.LVL115:
	.loc 1 293 5
	.loc 1 293 11 is_stmt 0
	movq	%rbx, %rax
	shrq	$3, %rax
	movzbl	2147450880(%rax), %edx
	movq	%rbx, %rax
	andl	$7, %eax
	addl	$3, %eax
	cmpb	%dl, %al
	jl	.L188
	testb	%dl, %dl
	jne	.L203
.L188:
	movl	%ebp, (%rbx)
	.loc 1 294 5
	addq	$8, %rsp
	.cfi_remember_state
	.cfi_def_cfa_offset 24
	popq	%rbx
	.cfi_def_cfa_offset 16
	popq	%rbp
	.cfi_def_cfa_offset 8
.LVL116:
	ret
.LVL117:
.L203:
	.cfi_restore_state
	.loc 1 293 11
	movq	%rbx, %rdi
	call	__asan_report_store4
.LVL118:
.L202:
	.loc 1 283 15
	movq	%rbx, %rdi
	call	__asan_report_load4
.LVL119:
	.cfi_endproc
.LFE6:
	.size	handle_usr2, .-handle_usr2
	.p2align 4,,15
	.type	occasional, @function
occasional:
.LASANPC32:
.LFB32:
	.loc 1 2130 5 is_stmt 1
	.cfi_startproc
.LVL120:
	.loc 1 2131 5
	.loc 1 2130 5 is_stmt 0
	subq	$8, %rsp
	.cfi_def_cfa_offset 16
	.loc 1 2131 5
	movq	%rsi, %rdi
.LVL121:
	call	mmc_cleanup
.LVL122:
	.loc 1 2132 5 is_stmt 1
	call	tmr_cleanup
.LVL123:
	.loc 1 2133 5
	.loc 1 2133 19 is_stmt 0
	movl	$1, watchdog_flag(%rip)
	.loc 1 2134 5
	addq	$8, %rsp
	.cfi_def_cfa_offset 8
	ret
	.cfi_endproc
.LFE32:
	.size	occasional, .-occasional
	.section	.rodata
	.align 32
.LC10:
	.string	"/tmp"
	.zero	59
	.text
	.p2align 4,,15
	.type	handle_alrm, @function
handle_alrm:
.LASANPC7:
.LFB7:
	.loc 1 300 5 is_stmt 1
	.cfi_startproc
.LVL124:
	.loc 1 301 5
	.loc 1 300 5 is_stmt 0
	pushq	%rbp
	.cfi_def_cfa_offset 16
	.cfi_offset 6, -16
	pushq	%rbx
	.cfi_def_cfa_offset 24
	.cfi_offset 3, -24
	subq	$8, %rsp
	.cfi_def_cfa_offset 32
	.loc 1 301 24
	call	__errno_location
.LVL125:
	movq	%rax, %rbx
	.loc 1 301 15
	shrq	$3, %rax
	movzbl	2147450880(%rax), %edx
	movq	%rbx, %rax
	andl	$7, %eax
	addl	$3, %eax
	cmpb	%dl, %al
	jl	.L207
	testb	%dl, %dl
	jne	.L223
.L207:
	.loc 1 304 10
	movl	watchdog_flag(%rip), %eax
	.loc 1 301 15
	movl	(%rbx), %ebp
.LVL126:
	.loc 1 304 5 is_stmt 1
	.loc 1 304 8 is_stmt 0
	testl	%eax, %eax
	je	.L224
	.loc 1 311 5 is_stmt 1
	.loc 1 311 19 is_stmt 0
	movl	$0, watchdog_flag(%rip)
	.loc 1 318 5 is_stmt 1
	.loc 1 318 12 is_stmt 0
	movl	$360, %edi
	call	alarm
.LVL127:
	.loc 1 321 5 is_stmt 1
	.loc 1 321 11 is_stmt 0
	movq	%rbx, %rax
	shrq	$3, %rax
	movzbl	2147450880(%rax), %edx
	movq	%rbx, %rax
	andl	$7, %eax
	addl	$3, %eax
	cmpb	%dl, %al
	jl	.L209
	testb	%dl, %dl
	jne	.L225
.L209:
	movl	%ebp, (%rbx)
	.loc 1 322 5
	addq	$8, %rsp
	.cfi_remember_state
	.cfi_def_cfa_offset 24
	popq	%rbx
	.cfi_def_cfa_offset 16
	popq	%rbp
	.cfi_def_cfa_offset 8
.LVL128:
	ret
.LVL129:
.L225:
	.cfi_restore_state
	.loc 1 321 11
	movq	%rbx, %rdi
	call	__asan_report_store4
.LVL130:
.L223:
	.loc 1 301 15
	movq	%rbx, %rdi
	call	__asan_report_load4
.LVL131:
.L224:
	.loc 1 307 2 is_stmt 1
	.loc 1 307 9 is_stmt 0
	movl	$.LC10, %edi
	call	chdir
.LVL132:
	.loc 1 309 2 is_stmt 1
	call	__asan_handle_no_return
.LVL133:
	call	abort
.LVL134:
	.cfi_endproc
.LFE7:
	.size	handle_alrm, .-handle_alrm
	.section	.rodata.str1.1
.LC11:
	.string	"1 32 4 6 status "
	.section	.rodata
	.align 32
.LC12:
	.string	"child wait - %m"
	.zero	48
	.text
	.p2align 4,,15
	.type	handle_chld, @function
handle_chld:
.LASANPC3:
.LFB3:
	.loc 1 185 5
	.cfi_startproc
.LVL135:
	pushq	%r15
	.cfi_def_cfa_offset 16
	.cfi_offset 15, -16
	pushq	%r14
	.cfi_def_cfa_offset 24
	.cfi_offset 14, -24
	pushq	%r13
	.cfi_def_cfa_offset 32
	.cfi_offset 13, -32
	pushq	%r12
	.cfi_def_cfa_offset 40
	.cfi_offset 12, -40
	pushq	%rbp
	.cfi_def_cfa_offset 48
	.cfi_offset 6, -48
	pushq	%rbx
	.cfi_def_cfa_offset 56
	.cfi_offset 3, -56
	subq	$120, %rsp
	.cfi_def_cfa_offset 176
	movl	__asan_option_detect_stack_use_after_return(%rip), %eax
	leaq	16(%rsp), %rbx
	testl	%eax, %eax
	jne	.L275
.LVL136:
.L226:
	.loc 1 186 5
	.loc 1 185 5 is_stmt 0
	movq	%rbx, %rbp
	movq	$1102416563, (%rbx)
	leaq	96(%rbx), %r12
	shrq	$3, %rbp
	movq	$.LC11, 8(%rbx)
	movq	$.LASANPC3, 16(%rbx)
	movl	$-235802127, 2147450880(%rbp)
	movl	$-218959356, 2147450884(%rbp)
	movl	$-202116109, 2147450888(%rbp)
	.loc 1 186 24
	call	__errno_location
.LVL137:
	movq	%rax, %r15
	.loc 1 186 15
	shrq	$3, %rax
	movzbl	2147450880(%rax), %edx
	movq	%r15, %rax
	andl	$7, %eax
	addl	$3, %eax
	cmpb	%dl, %al
	jl	.L230
	testb	%dl, %dl
	jne	.L276
.L230:
	movl	(%r15), %eax
	.loc 1 207 11
	movq	%r15, %r14
	subq	$64, %r12
	.loc 1 224 6
	xorl	%r13d, %r13d
	.loc 1 207 11
	shrq	$3, %r14
	.loc 1 186 15
	movl	%eax, 12(%rsp)
.LVL138:
	.loc 1 187 5 is_stmt 1
	.loc 1 188 5
	.loc 1 207 11 is_stmt 0
	movq	%r15, %rax
.LVL139:
	andl	$7, %eax
.LVL140:
	addl	$3, %eax
	movb	%al, 11(%rsp)
.LVL141:
.L231:
	.loc 1 196 5 is_stmt 1
	.loc 1 199 2
	.loc 1 199 8 is_stmt 0
	movl	$1, %edx
	movq	%r12, %rsi
	movl	$-1, %edi
	call	waitpid
.LVL142:
	.loc 1 203 2 is_stmt 1
	.loc 1 203 5 is_stmt 0
	testl	%eax, %eax
	je	.L236
	.loc 1 205 2 is_stmt 1
	.loc 1 205 5 is_stmt 0
	js	.L277
	.loc 1 222 2 is_stmt 1
	.loc 1 222 10 is_stmt 0
	movq	hs(%rip), %rdx
	.loc 1 222 5
	testq	%rdx, %rdx
	je	.L231
	.loc 1 224 6 is_stmt 1
	.loc 1 224 10 is_stmt 0
	leaq	36(%rdx), %rdi
	movq	%rdi, %rax
.LVL143:
	shrq	$3, %rax
	movzbl	2147450880(%rax), %esi
	movq	%rdi, %rax
	andl	$7, %eax
	addl	$3, %eax
	cmpb	%sil, %al
	jl	.L237
	testb	%sil, %sil
	jne	.L278
.L237:
	.loc 1 225 6 is_stmt 1
	.loc 1 224 6 is_stmt 0
	movl	36(%rdx), %eax
	subl	$1, %eax
	cmovs	%r13d, %eax
	movl	%eax, 36(%rdx)
	jmp	.L231
.LVL144:
	.p2align 4,,10
	.p2align 3
.L277:
	.loc 1 207 6 is_stmt 1
	.loc 1 207 11 is_stmt 0
	movzbl	2147450880(%r14), %eax
.LVL145:
	cmpb	%al, 11(%rsp)
	jl	.L234
	testb	%al, %al
	jne	.L279
.L234:
	movl	(%r15), %eax
	.loc 1 207 9
	cmpl	$4, %eax
	je	.L231
	cmpl	$11, %eax
	je	.L231
	.loc 1 212 6 is_stmt 1
	.loc 1 212 9 is_stmt 0
	cmpl	$10, %eax
	jne	.L280
.L236:
	.loc 1 231 5 is_stmt 1
	.loc 1 231 11 is_stmt 0
	movq	%r15, %rax
	shrq	$3, %rax
	movzbl	2147450880(%rax), %edx
	movq	%r15, %rax
	andl	$7, %eax
	addl	$3, %eax
	cmpb	%dl, %al
	jl	.L240
	testb	%dl, %dl
	jne	.L281
.L240:
	movl	12(%rsp), %eax
	movl	%eax, (%r15)
	.loc 1 185 5
	leaq	16(%rsp), %rax
	cmpq	%rbx, %rax
	jne	.L282
	movq	$0, 2147450880(%rbp)
	movl	$0, 2147450888(%rbp)
.LVL146:
.L228:
	.loc 1 232 5
	addq	$120, %rsp
	.cfi_remember_state
	.cfi_def_cfa_offset 56
	popq	%rbx
	.cfi_def_cfa_offset 48
	popq	%rbp
	.cfi_def_cfa_offset 40
	popq	%r12
	.cfi_def_cfa_offset 32
	popq	%r13
	.cfi_def_cfa_offset 24
	popq	%r14
	.cfi_def_cfa_offset 16
	popq	%r15
	.cfi_def_cfa_offset 8
	ret
.LVL147:
	.p2align 4,,10
	.p2align 3
.L280:
	.cfi_restore_state
	.loc 1 213 3 is_stmt 1
	movl	$.LC12, %esi
	movl	$3, %edi
	xorl	%eax, %eax
	call	syslog
.LVL148:
	jmp	.L236
.LVL149:
.L276:
	.loc 1 186 15 is_stmt 0
	movq	%r15, %rdi
	call	__asan_report_load4
.LVL150:
.L281:
	.loc 1 231 11
	movq	%r15, %rdi
	call	__asan_report_store4
.LVL151:
.L282:
	.loc 1 185 5
	movabsq	$-723401728380766731, %rax
	movq	$1172321806, (%rbx)
.LVL152:
	movq	%rax, 2147450880(%rbp)
	movl	$-168430091, 2147450888(%rbp)
	jmp	.L228
.LVL153:
.L278:
	.loc 1 224 10
	call	__asan_report_load4
.LVL154:
.L279:
	.loc 1 207 11
	movq	%r15, %rdi
	call	__asan_report_load4
.LVL155:
.L275:
	.loc 1 185 5
	movl	$96, %edi
.LVL156:
	call	__asan_stack_malloc_1
.LVL157:
	testq	%rax, %rax
	cmovne	%rax, %rbx
	jmp	.L226
	.cfi_endproc
.LFE3:
	.size	handle_chld, .-handle_chld
	.section	.rodata
	.align 32
.LC13:
	.string	"out of memory copying a string"
	.zero	33
	.align 32
.LC14:
	.string	"%s: out of memory copying a string\n"
	.zero	60
	.text
	.p2align 4,,15
	.type	e_strdup, @function
e_strdup:
.LASANPC15:
.LFB15:
	.loc 1 1220 5 is_stmt 1
	.cfi_startproc
.LVL158:
	.loc 1 1221 5
	.loc 1 1223 5
	.loc 1 1220 5 is_stmt 0
	subq	$8, %rsp
	.cfi_def_cfa_offset 16
	.loc 1 1223 14
	call	strdup
.LVL159:
	.loc 1 1224 5 is_stmt 1
	.loc 1 1224 8 is_stmt 0
	testq	%rax, %rax
	je	.L287
	.loc 1 1231 5
	addq	$8, %rsp
	.cfi_remember_state
	.cfi_def_cfa_offset 8
	ret
.L287:
	.cfi_restore_state
	.loc 1 1226 2 is_stmt 1
	movl	$.LC13, %esi
	movl	$2, %edi
	call	syslog
.LVL160:
	.loc 1 1227 2
	.loc 1 1227 9 is_stmt 0
	movl	$stderr, %eax
	.loc 1 1227 2
	movq	argv0(%rip), %rdx
	.loc 1 1227 9
	shrq	$3, %rax
	cmpb	$0, 2147450880(%rax)
	jne	.L288
	movq	stderr(%rip), %rdi
	movl	$.LC14, %esi
	xorl	%eax, %eax
	call	fprintf
.LVL161:
	.loc 1 1228 2 is_stmt 1
	call	__asan_handle_no_return
.LVL162:
	movl	$1, %edi
	call	exit
.LVL163:
.L288:
	.loc 1 1227 9 is_stmt 0
	movl	$stderr, %edi
	call	__asan_report_load8
.LVL164:
	.cfi_endproc
.LFE15:
	.size	e_strdup, .-e_strdup
	.globl	__asan_stack_malloc_2
	.section	.rodata.str1.1
.LC15:
	.string	"1 32 100 4 line "
	.section	.rodata
	.align 32
.LC16:
	.string	"r"
	.zero	62
	.align 32
.LC17:
	.string	" \t\n\r"
	.zero	59
	.align 32
.LC18:
	.string	"debug"
	.zero	58
	.align 32
.LC19:
	.string	"port"
	.zero	59
	.align 32
.LC20:
	.string	"dir"
	.zero	60
	.align 32
.LC21:
	.string	"chroot"
	.zero	57
	.align 32
.LC22:
	.string	"nochroot"
	.zero	55
	.align 32
.LC23:
	.string	"data_dir"
	.zero	55
	.align 32
.LC24:
	.string	"symlink"
	.zero	56
	.align 32
.LC25:
	.string	"nosymlink"
	.zero	54
	.align 32
.LC26:
	.string	"symlinks"
	.zero	55
	.align 32
.LC27:
	.string	"nosymlinks"
	.zero	53
	.align 32
.LC28:
	.string	"user"
	.zero	59
	.align 32
.LC29:
	.string	"cgipat"
	.zero	57
	.align 32
.LC30:
	.string	"cgilimit"
	.zero	55
	.align 32
.LC31:
	.string	"urlpat"
	.zero	57
	.align 32
.LC32:
	.string	"noemptyreferers"
	.zero	48
	.align 32
.LC33:
	.string	"localpat"
	.zero	55
	.align 32
.LC34:
	.string	"throttles"
	.zero	54
	.align 32
.LC35:
	.string	"host"
	.zero	59
	.align 32
.LC36:
	.string	"logfile"
	.zero	56
	.align 32
.LC37:
	.string	"vhost"
	.zero	58
	.align 32
.LC38:
	.string	"novhost"
	.zero	56
	.align 32
.LC39:
	.string	"globalpasswd"
	.zero	51
	.align 32
.LC40:
	.string	"noglobalpasswd"
	.zero	49
	.align 32
.LC41:
	.string	"pidfile"
	.zero	56
	.align 32
.LC42:
	.string	"charset"
	.zero	56
	.align 32
.LC43:
	.string	"p3p"
	.zero	60
	.align 32
.LC44:
	.string	"max_age"
	.zero	56
	.align 32
.LC45:
	.string	"%s: unknown config option '%s'\n"
	.zero	32
	.text
	.p2align 4,,15
	.type	read_config, @function
read_config:
.LASANPC12:
.LFB12:
	.loc 1 1000 5 is_stmt 1
	.cfi_startproc
.LVL165:
	pushq	%r15
	.cfi_def_cfa_offset 16
	.cfi_offset 15, -16
	pushq	%r14
	.cfi_def_cfa_offset 24
	.cfi_offset 14, -24
	pushq	%r13
	.cfi_def_cfa_offset 32
	.cfi_offset 13, -32
	pushq	%r12
	.cfi_def_cfa_offset 40
	.cfi_offset 12, -40
	pushq	%rbp
	.cfi_def_cfa_offset 48
	.cfi_offset 6, -48
	pushq	%rbx
	.cfi_def_cfa_offset 56
	.cfi_offset 3, -56
	movq	%rdi, %rbx
	subq	$216, %rsp
	.cfi_def_cfa_offset 272
	movl	__asan_option_detect_stack_use_after_return(%rip), %eax
	leaq	16(%rsp), %r13
	testl	%eax, %eax
	jne	.L392
.LVL166:
.L289:
	.loc 1 1001 5
	.loc 1 1002 5
	.loc 1 1003 5
	.loc 1 1004 5
	.loc 1 1005 5
	.loc 1 1006 5
	.loc 1 1008 5
	.loc 1 1000 5 is_stmt 0
	movq	%r13, %r15
	.loc 1 1008 10
	movl	$.LC16, %esi
	movq	%rbx, %rdi
	.loc 1 1000 5
	movq	$1102416563, 0(%r13)
	shrq	$3, %r15
	movq	$.LC15, 8(%r13)
	movq	$.LASANPC12, 16(%r13)
	movl	$-235802127, 2147450880(%r15)
	movl	$-218959356, 2147450896(%r15)
	movl	$-202116109, 2147450900(%r15)
	.loc 1 1008 10
	call	fopen
.LVL167:
	movq	%rax, 8(%rsp)
.LVL168:
	.loc 1 1009 5 is_stmt 1
	.loc 1 1009 8 is_stmt 0
	testq	%rax, %rax
	je	.L388
	.loc 1 1031 26
	movabsq	$4294977024, %rbp
	leaq	32(%r13), %rax
.LVL169:
	movq	%rax, (%rsp)
.LVL170:
.L293:
	.loc 1 1015 13
	movq	8(%rsp), %rdx
	movq	(%rsp), %rdi
	movl	$1000, %esi
	call	fgets
.LVL171:
	.loc 1 1015 11
	testq	%rax, %rax
	je	.L393
	.loc 1 1018 2 is_stmt 1
	.loc 1 1018 14 is_stmt 0
	movq	(%rsp), %rdi
	movl	$35, %esi
	call	strchr
.LVL172:
	.loc 1 1018 5
	testq	%rax, %rax
	je	.L294
	.loc 1 1019 6 is_stmt 1
	.loc 1 1019 10 is_stmt 0
	movq	%rax, %rdx
	movq	%rax, %rcx
	shrq	$3, %rdx
	andl	$7, %ecx
	movzbl	2147450880(%rdx), %edx
	cmpb	%cl, %dl
	jg	.L295
	testb	%dl, %dl
	jne	.L394
.L295:
	movb	$0, (%rax)
.L294:
	.loc 1 1022 2 is_stmt 1
.LVL173:
	.loc 1 1023 2
	.loc 1 1023 8 is_stmt 0
	movq	(%rsp), %rbx
	movl	$.LC17, %esi
	movq	%rbx, %rdi
	call	strspn
.LVL174:
	.loc 1 1023 5
	leaq	(%rbx,%rax), %rbx
.LVL175:
	.loc 1 1026 2 is_stmt 1
	.loc 1 1026 10 is_stmt 0
	movq	%rbx, %rax
	movq	%rbx, %rdx
	shrq	$3, %rax
	andl	$7, %edx
	movzbl	2147450880(%rax), %eax
	cmpb	%dl, %al
	jg	.L296
	testb	%al, %al
	jne	.L395
	.p2align 4,,10
	.p2align 3
.L296:
	.loc 1 1026 8
	cmpb	$0, (%rbx)
	je	.L293
	.loc 1 1029 6 is_stmt 1
	.loc 1 1029 17 is_stmt 0
	movl	$.LC17, %esi
	movq	%rbx, %rdi
	call	strcspn
.LVL176:
	.loc 1 1029 10
	leaq	(%rbx,%rax), %r14
.LVL177:
	.loc 1 1031 6 is_stmt 1
	.loc 1 1031 14 is_stmt 0
	movq	%r14, %rax
	movq	%r14, %rcx
	shrq	$3, %rax
	andl	$7, %ecx
	movzbl	2147450880(%rax), %eax
	cmpb	%cl, %al
	jg	.L298
	testb	%al, %al
	jne	.L396
.L298:
	.loc 1 1031 26
	movzbl	(%r14), %eax
	cmpb	$32, %al
	ja	.L299
	.loc 1 1031 58
	btq	%rax, %rbp
	jnc	.L299
	movq	%r14, %rdi
.LVL178:
	.p2align 4,,10
	.p2align 3
.L302:
	.loc 1 1032 3 is_stmt 1
	.loc 1 1032 10 is_stmt 0
	movq	%rdi, %rax
	movq	%rdi, %rcx
	.loc 1 1032 7
	addq	$1, %r14
.LVL179:
	.loc 1 1032 10
	shrq	$3, %rax
	andl	$7, %ecx
	movzbl	2147450880(%rax), %eax
	cmpb	%cl, %al
	jg	.L300
	testb	%al, %al
	jne	.L397
.L300:
	.loc 1 1031 14
	movq	%r14, %rax
	.loc 1 1032 10
	movb	$0, -1(%r14)
.LVL180:
	.loc 1 1031 14
	movq	%r14, %rcx
	shrq	$3, %rax
.LVL181:
	andl	$7, %ecx
.LVL182:
	movzbl	2147450880(%rax), %eax
	cmpb	%cl, %al
	jg	.L301
	testb	%al, %al
	jne	.L398
.L301:
	.loc 1 1031 26
	movzbl	(%r14), %eax
	cmpb	$32, %al
	jbe	.L399
.L299:
	.loc 1 1034 6 is_stmt 1
.LVL183:
	.loc 1 1035 6
	.loc 1 1035 14 is_stmt 0
	movl	$61, %esi
	movq	%rbx, %rdi
	call	strchr
.LVL184:
	.loc 1 1036 6 is_stmt 1
	.loc 1 1036 9 is_stmt 0
	testq	%rax, %rax
	je	.L337
	.loc 1 1037 3 is_stmt 1
	.loc 1 1037 12 is_stmt 0
	movq	%rax, %rcx
	movq	%rax, %rsi
	.loc 1 1037 9
	leaq	1(%rax), %r12
.LVL185:
	.loc 1 1037 12
	shrq	$3, %rcx
	andl	$7, %esi
	movzbl	2147450880(%rcx), %ecx
	cmpb	%sil, %cl
	jg	.L304
	testb	%cl, %cl
	jne	.L400
.L304:
	movb	$0, (%rax)
.LVL186:
.L303:
	.loc 1 1039 6 is_stmt 1
	.loc 1 1039 11 is_stmt 0
	movl	$.LC18, %esi
	movq	%rbx, %rdi
	call	strcasecmp
.LVL187:
	.loc 1 1039 9
	testl	%eax, %eax
	je	.L401
	.loc 1 1044 11 is_stmt 1
	.loc 1 1044 16 is_stmt 0
	movl	$.LC19, %esi
	movq	%rbx, %rdi
	call	strcasecmp
.LVL188:
	.loc 1 1044 14
	testl	%eax, %eax
	je	.L402
	.loc 1 1049 11 is_stmt 1
	.loc 1 1049 16 is_stmt 0
	movl	$.LC20, %esi
	movq	%rbx, %rdi
	call	strcasecmp
.LVL189:
	.loc 1 1049 14
	testl	%eax, %eax
	je	.L403
	.loc 1 1054 11 is_stmt 1
	.loc 1 1054 16 is_stmt 0
	movl	$.LC21, %esi
	movq	%rbx, %rdi
	call	strcasecmp
.LVL190:
	.loc 1 1054 14
	testl	%eax, %eax
	je	.L404
	.loc 1 1060 11 is_stmt 1
	.loc 1 1060 16 is_stmt 0
	movl	$.LC22, %esi
	movq	%rbx, %rdi
	call	strcasecmp
.LVL191:
	.loc 1 1060 14
	testl	%eax, %eax
	je	.L405
	.loc 1 1066 11 is_stmt 1
	.loc 1 1066 16 is_stmt 0
	movl	$.LC23, %esi
	movq	%rbx, %rdi
	call	strcasecmp
.LVL192:
	.loc 1 1066 14
	testl	%eax, %eax
	je	.L406
	.loc 1 1071 11 is_stmt 1
	.loc 1 1071 16 is_stmt 0
	movl	$.LC24, %esi
	movq	%rbx, %rdi
	call	strcasecmp
.LVL193:
	.loc 1 1071 14
	testl	%eax, %eax
	je	.L390
	.loc 1 1076 11 is_stmt 1
	.loc 1 1076 16 is_stmt 0
	movl	$.LC25, %esi
	movq	%rbx, %rdi
	call	strcasecmp
.LVL194:
	.loc 1 1076 14
	testl	%eax, %eax
	je	.L391
	.loc 1 1081 11 is_stmt 1
	.loc 1 1081 16 is_stmt 0
	movl	$.LC26, %esi
	movq	%rbx, %rdi
	call	strcasecmp
.LVL195:
	.loc 1 1081 14
	testl	%eax, %eax
	je	.L390
	.loc 1 1086 11 is_stmt 1
	.loc 1 1086 16 is_stmt 0
	movl	$.LC27, %esi
	movq	%rbx, %rdi
	call	strcasecmp
.LVL196:
	.loc 1 1086 14
	testl	%eax, %eax
	je	.L391
	.loc 1 1091 11 is_stmt 1
	.loc 1 1091 16 is_stmt 0
	movl	$.LC28, %esi
	movq	%rbx, %rdi
	call	strcasecmp
.LVL197:
	.loc 1 1091 14
	testl	%eax, %eax
	je	.L407
	.loc 1 1096 11 is_stmt 1
	.loc 1 1096 16 is_stmt 0
	movl	$.LC29, %esi
	movq	%rbx, %rdi
	call	strcasecmp
.LVL198:
	.loc 1 1096 14
	testl	%eax, %eax
	je	.L408
	.loc 1 1101 11 is_stmt 1
	.loc 1 1101 16 is_stmt 0
	movl	$.LC30, %esi
	movq	%rbx, %rdi
	call	strcasecmp
.LVL199:
	.loc 1 1101 14
	testl	%eax, %eax
	je	.L409
	.loc 1 1106 11 is_stmt 1
	.loc 1 1106 16 is_stmt 0
	movl	$.LC31, %esi
	movq	%rbx, %rdi
	call	strcasecmp
.LVL200:
	.loc 1 1106 14
	testl	%eax, %eax
	je	.L410
	.loc 1 1111 11 is_stmt 1
	.loc 1 1111 16 is_stmt 0
	movl	$.LC32, %esi
	movq	%rbx, %rdi
	call	strcasecmp
.LVL201:
	.loc 1 1111 14
	testl	%eax, %eax
	je	.L411
	.loc 1 1116 11 is_stmt 1
	.loc 1 1116 16 is_stmt 0
	movl	$.LC33, %esi
	movq	%rbx, %rdi
	call	strcasecmp
.LVL202:
	.loc 1 1116 14
	testl	%eax, %eax
	je	.L412
	.loc 1 1121 11 is_stmt 1
	.loc 1 1121 16 is_stmt 0
	movl	$.LC34, %esi
	movq	%rbx, %rdi
	call	strcasecmp
.LVL203:
	.loc 1 1121 14
	testl	%eax, %eax
	je	.L413
	.loc 1 1126 11 is_stmt 1
	.loc 1 1126 16 is_stmt 0
	movl	$.LC35, %esi
	movq	%rbx, %rdi
	call	strcasecmp
.LVL204:
	.loc 1 1126 14
	testl	%eax, %eax
	je	.L414
	.loc 1 1131 11 is_stmt 1
	.loc 1 1131 16 is_stmt 0
	movl	$.LC36, %esi
	movq	%rbx, %rdi
	call	strcasecmp
.LVL205:
	.loc 1 1131 14
	testl	%eax, %eax
	je	.L415
	.loc 1 1136 11 is_stmt 1
	.loc 1 1136 16 is_stmt 0
	movl	$.LC37, %esi
	movq	%rbx, %rdi
	call	strcasecmp
.LVL206:
	.loc 1 1136 14
	testl	%eax, %eax
	je	.L416
	.loc 1 1141 11 is_stmt 1
	.loc 1 1141 16 is_stmt 0
	movl	$.LC38, %esi
	movq	%rbx, %rdi
	call	strcasecmp
.LVL207:
	.loc 1 1141 14
	testl	%eax, %eax
	je	.L417
	.loc 1 1146 11 is_stmt 1
	.loc 1 1146 16 is_stmt 0
	movl	$.LC39, %esi
	movq	%rbx, %rdi
	call	strcasecmp
.LVL208:
	.loc 1 1146 14
	testl	%eax, %eax
	je	.L418
	.loc 1 1151 11 is_stmt 1
	.loc 1 1151 16 is_stmt 0
	movl	$.LC40, %esi
	movq	%rbx, %rdi
	call	strcasecmp
.LVL209:
	.loc 1 1151 14
	testl	%eax, %eax
	je	.L419
	.loc 1 1156 11 is_stmt 1
	.loc 1 1156 16 is_stmt 0
	movl	$.LC41, %esi
	movq	%rbx, %rdi
	call	strcasecmp
.LVL210:
	.loc 1 1156 14
	testl	%eax, %eax
	je	.L420
	.loc 1 1161 11 is_stmt 1
	.loc 1 1161 16 is_stmt 0
	movl	$.LC42, %esi
	movq	%rbx, %rdi
	call	strcasecmp
.LVL211:
	.loc 1 1161 14
	testl	%eax, %eax
	je	.L421
	.loc 1 1166 11 is_stmt 1
	.loc 1 1166 16 is_stmt 0
	movl	$.LC43, %esi
	movq	%rbx, %rdi
	call	strcasecmp
.LVL212:
	.loc 1 1166 14
	testl	%eax, %eax
	je	.L422
	.loc 1 1171 11 is_stmt 1
	.loc 1 1171 16 is_stmt 0
	movl	$.LC44, %esi
	movq	%rbx, %rdi
	call	strcasecmp
.LVL213:
	.loc 1 1171 14
	testl	%eax, %eax
	jne	.L332
	.loc 1 1173 3 is_stmt 1
	movq	%r12, %rsi
	movq	%rbx, %rdi
	call	value_required
.LVL214:
	.loc 1 1174 3
	.loc 1 1174 13 is_stmt 0
	movq	%r12, %rdi
	call	atoi
.LVL215:
	.loc 1 1174 11
	movl	%eax, max_age(%rip)
	jmp	.L306
.LVL216:
	.p2align 4,,10
	.p2align 3
.L399:
	.loc 1 1031 58
	btq	%rax, %rbp
	movq	%r14, %rdi
	jc	.L302
.LVL217:
	jmp	.L299
.LVL218:
	.p2align 4,,10
	.p2align 3
.L401:
	.loc 1 1041 3 is_stmt 1
	movq	%r12, %rsi
	movq	%rbx, %rdi
	call	no_value_required
.LVL219:
	.loc 1 1042 3
	.loc 1 1042 9 is_stmt 0
	movl	$1, debug(%rip)
.L306:
	.loc 1 1184 6 is_stmt 1
.LVL220:
	.loc 1 1185 6
	.loc 1 1185 12 is_stmt 0
	movl	$.LC17, %esi
	movq	%r14, %rdi
	call	strspn
.LVL221:
	.loc 1 1185 9
	leaq	(%r14,%rax), %rbx
.LVL222:
	.loc 1 1026 10
	movq	%rbx, %rax
	movq	%rbx, %rdx
	shrq	$3, %rax
	andl	$7, %edx
	movzbl	2147450880(%rax), %eax
	cmpb	%dl, %al
	jg	.L296
	testb	%al, %al
	je	.L296
	movq	%rbx, %rdi
	call	__asan_report_load1
.LVL223:
	.p2align 4,,10
	.p2align 3
.L337:
	xorl	%r12d, %r12d
	jmp	.L303
.LVL224:
.L402:
	.loc 1 1046 3 is_stmt 1
	movq	%r12, %rsi
	movq	%rbx, %rdi
	call	value_required
.LVL225:
	.loc 1 1047 3
	.loc 1 1047 27 is_stmt 0
	movq	%r12, %rdi
	call	atoi
.LVL226:
	.loc 1 1047 10
	movw	%ax, port(%rip)
	jmp	.L306
.L403:
	.loc 1 1051 3 is_stmt 1
	movq	%r12, %rsi
	movq	%rbx, %rdi
	call	value_required
.LVL227:
	.loc 1 1052 3
	.loc 1 1052 9 is_stmt 0
	movq	%r12, %rdi
	call	e_strdup
.LVL228:
	.loc 1 1052 7
	movq	%rax, dir(%rip)
	jmp	.L306
.L404:
	.loc 1 1056 3 is_stmt 1
	movq	%r12, %rsi
	movq	%rbx, %rdi
	call	no_value_required
.LVL229:
	.loc 1 1057 3
	.loc 1 1057 13 is_stmt 0
	movl	$1, do_chroot(%rip)
	.loc 1 1058 3 is_stmt 1
	.loc 1 1058 20 is_stmt 0
	movl	$1, no_symlink_check(%rip)
	jmp	.L306
.L405:
	.loc 1 1062 3 is_stmt 1
	movq	%r12, %rsi
	movq	%rbx, %rdi
	call	no_value_required
.LVL230:
	.loc 1 1063 3
	.loc 1 1063 13 is_stmt 0
	movl	$0, do_chroot(%rip)
	.loc 1 1064 3 is_stmt 1
	.loc 1 1064 20 is_stmt 0
	movl	$0, no_symlink_check(%rip)
	jmp	.L306
.L406:
	.loc 1 1068 3 is_stmt 1
	movq	%r12, %rsi
	movq	%rbx, %rdi
	call	value_required
.LVL231:
	.loc 1 1069 3
	.loc 1 1069 14 is_stmt 0
	movq	%r12, %rdi
	call	e_strdup
.LVL232:
	.loc 1 1069 12
	movq	%rax, data_dir(%rip)
	jmp	.L306
.L390:
	.loc 1 1083 3 is_stmt 1
	movq	%r12, %rsi
	movq	%rbx, %rdi
	call	no_value_required
.LVL233:
	.loc 1 1084 3
	.loc 1 1084 20 is_stmt 0
	movl	$0, no_symlink_check(%rip)
	jmp	.L306
.L391:
	.loc 1 1088 3 is_stmt 1
	movq	%r12, %rsi
	movq	%rbx, %rdi
	call	no_value_required
.LVL234:
	.loc 1 1089 3
	.loc 1 1089 20 is_stmt 0
	movl	$1, no_symlink_check(%rip)
	jmp	.L306
.LVL235:
.L398:
	.loc 1 1031 14
	movq	%r14, %rdi
	call	__asan_report_load1
.LVL236:
.L397:
	.loc 1 1032 10
	call	__asan_report_store1
.LVL237:
.L407:
	.loc 1 1093 3 is_stmt 1
	movq	%r12, %rsi
	movq	%rbx, %rdi
	call	value_required
.LVL238:
	.loc 1 1094 3
	.loc 1 1094 10 is_stmt 0
	movq	%r12, %rdi
	call	e_strdup
.LVL239:
	.loc 1 1094 8
	movq	%rax, user(%rip)
	jmp	.L306
.LVL240:
.L393:
	.loc 1 1189 5 is_stmt 1
	.loc 1 1189 12 is_stmt 0
	movq	8(%rsp), %rdi
	call	fclose
.LVL241:
	.loc 1 1000 5
	leaq	16(%rsp), %rax
	cmpq	%r13, %rax
	jne	.L423
	movl	$0, 2147450880(%r15)
	movq	$0, 2147450896(%r15)
.LVL242:
.L291:
	.loc 1 1190 5
	addq	$216, %rsp
	.cfi_remember_state
	.cfi_def_cfa_offset 56
	popq	%rbx
	.cfi_def_cfa_offset 48
	popq	%rbp
	.cfi_def_cfa_offset 40
	popq	%r12
	.cfi_def_cfa_offset 32
	popq	%r13
	.cfi_def_cfa_offset 24
	popq	%r14
	.cfi_def_cfa_offset 16
	popq	%r15
	.cfi_def_cfa_offset 8
	ret
.LVL243:
.L408:
	.cfi_restore_state
	.loc 1 1098 3 is_stmt 1
	movq	%r12, %rsi
	movq	%rbx, %rdi
	call	value_required
.LVL244:
	.loc 1 1099 3
	.loc 1 1099 17 is_stmt 0
	movq	%r12, %rdi
	call	e_strdup
.LVL245:
	.loc 1 1099 15
	movq	%rax, cgi_pattern(%rip)
	jmp	.L306
.L410:
	.loc 1 1108 3 is_stmt 1
	movq	%r12, %rsi
	movq	%rbx, %rdi
	call	value_required
.LVL246:
	.loc 1 1109 3
	.loc 1 1109 17 is_stmt 0
	movq	%r12, %rdi
	call	e_strdup
.LVL247:
	.loc 1 1109 15
	movq	%rax, url_pattern(%rip)
	jmp	.L306
.L409:
	.loc 1 1103 3 is_stmt 1
	movq	%r12, %rsi
	movq	%rbx, %rdi
	call	value_required
.LVL248:
	.loc 1 1104 3
	.loc 1 1104 15 is_stmt 0
	movq	%r12, %rdi
	call	atoi
.LVL249:
	.loc 1 1104 13
	movl	%eax, cgi_limit(%rip)
	jmp	.L306
.L412:
	.loc 1 1118 3 is_stmt 1
	movq	%r12, %rsi
	movq	%rbx, %rdi
	call	value_required
.LVL250:
	.loc 1 1119 3
	.loc 1 1119 19 is_stmt 0
	movq	%r12, %rdi
	call	e_strdup
.LVL251:
	.loc 1 1119 17
	movq	%rax, local_pattern(%rip)
	jmp	.L306
.L411:
	.loc 1 1113 3 is_stmt 1
	movq	%r12, %rsi
	movq	%rbx, %rdi
	call	no_value_required
.LVL252:
	.loc 1 1114 3
	.loc 1 1114 21 is_stmt 0
	movl	$1, no_empty_referers(%rip)
	jmp	.L306
.L413:
	.loc 1 1123 3 is_stmt 1
	movq	%r12, %rsi
	movq	%rbx, %rdi
	call	value_required
.LVL253:
	.loc 1 1124 3
	.loc 1 1124 18 is_stmt 0
	movq	%r12, %rdi
	call	e_strdup
.LVL254:
	.loc 1 1124 16
	movq	%rax, throttlefile(%rip)
	jmp	.L306
.LVL255:
.L396:
	.loc 1 1031 14
	movq	%r14, %rdi
	call	__asan_report_load1
.LVL256:
.L400:
	.loc 1 1037 12
	movq	%rax, %rdi
	call	__asan_report_store1
.LVL257:
.L415:
	.loc 1 1133 3 is_stmt 1
	movq	%r12, %rsi
	movq	%rbx, %rdi
	call	value_required
.LVL258:
	.loc 1 1134 3
	.loc 1 1134 13 is_stmt 0
	movq	%r12, %rdi
	call	e_strdup
.LVL259:
	.loc 1 1134 11
	movq	%rax, logfile(%rip)
	jmp	.L306
.L414:
	.loc 1 1128 3 is_stmt 1
	movq	%r12, %rsi
	movq	%rbx, %rdi
	call	value_required
.LVL260:
	.loc 1 1129 3
	.loc 1 1129 14 is_stmt 0
	movq	%r12, %rdi
	call	e_strdup
.LVL261:
	.loc 1 1129 12
	movq	%rax, hostname(%rip)
	jmp	.L306
.LVL262:
.L423:
	.loc 1 1000 5
	movdqa	.LC46(%rip), %xmm0
	movq	$1172321806, 0(%r13)
.LVL263:
	movabsq	$-723401728380766731, %rax
	movq	%rax, 2147450896(%r15)
	movups	%xmm0, 2147450880(%r15)
	jmp	.L291
.LVL264:
	.p2align 4,,10
	.p2align 3
.L418:
	.loc 1 1148 3 is_stmt 1
	movq	%r12, %rsi
	movq	%rbx, %rdi
	call	no_value_required
.LVL265:
	.loc 1 1149 3
	.loc 1 1149 20 is_stmt 0
	movl	$1, do_global_passwd(%rip)
	jmp	.L306
.L332:
	.loc 1 1178 3 is_stmt 1
	.loc 1 1178 10 is_stmt 0
	movl	$stderr, %eax
	.loc 1 1178 3
	movq	argv0(%rip), %rdx
	.loc 1 1178 10
	shrq	$3, %rax
	cmpb	$0, 2147450880(%rax)
	jne	.L424
	movq	stderr(%rip), %rdi
	movq	%rbx, %rcx
	movl	$.LC45, %esi
	xorl	%eax, %eax
	call	fprintf
.LVL266:
	.loc 1 1180 3 is_stmt 1
	call	__asan_handle_no_return
.LVL267:
	movl	$1, %edi
	call	exit
.LVL268:
	.p2align 4,,10
	.p2align 3
.L422:
	.loc 1 1168 3
	movq	%r12, %rsi
	movq	%rbx, %rdi
	call	value_required
.LVL269:
	.loc 1 1169 3
	.loc 1 1169 9 is_stmt 0
	movq	%r12, %rdi
	call	e_strdup
.LVL270:
	.loc 1 1169 7
	movq	%rax, p3p(%rip)
	jmp	.L306
.L421:
	.loc 1 1163 3 is_stmt 1
	movq	%r12, %rsi
	movq	%rbx, %rdi
	call	value_required
.LVL271:
	.loc 1 1164 3
	.loc 1 1164 13 is_stmt 0
	movq	%r12, %rdi
	call	e_strdup
.LVL272:
	.loc 1 1164 11
	movq	%rax, charset(%rip)
	jmp	.L306
.L424:
	.loc 1 1178 10
	movl	$stderr, %edi
	call	__asan_report_load8
.LVL273:
	.p2align 4,,10
	.p2align 3
.L420:
	.loc 1 1158 3 is_stmt 1
	movq	%r12, %rsi
	movq	%rbx, %rdi
	call	value_required
.LVL274:
	.loc 1 1159 3
	.loc 1 1159 13 is_stmt 0
	movq	%r12, %rdi
	call	e_strdup
.LVL275:
	.loc 1 1159 11
	movq	%rax, pidfile(%rip)
	jmp	.L306
.L419:
	.loc 1 1153 3 is_stmt 1
	movq	%r12, %rsi
	movq	%rbx, %rdi
	call	no_value_required
.LVL276:
	.loc 1 1154 3
	.loc 1 1154 20 is_stmt 0
	movl	$0, do_global_passwd(%rip)
	jmp	.L306
.L417:
	.loc 1 1143 3 is_stmt 1
	movq	%r12, %rsi
	movq	%rbx, %rdi
	call	no_value_required
.LVL277:
	.loc 1 1144 3
	.loc 1 1144 12 is_stmt 0
	movl	$0, do_vhost(%rip)
	jmp	.L306
.L416:
	.loc 1 1138 3 is_stmt 1
	movq	%r12, %rsi
	movq	%rbx, %rdi
	call	no_value_required
.LVL278:
	.loc 1 1139 3
	.loc 1 1139 12 is_stmt 0
	movl	$1, do_vhost(%rip)
	jmp	.L306
.LVL279:
.L395:
	.loc 1 1026 10
	movq	%rbx, %rdi
	call	__asan_report_load1
.LVL280:
.L394:
	.loc 1 1019 10
	movq	%rax, %rdi
	call	__asan_report_store1
.LVL281:
.L388:
	.loc 1 1011 2 is_stmt 1
	movq	%rbx, %rdi
	call	perror
.LVL282:
	.loc 1 1012 2
	call	__asan_handle_no_return
.LVL283:
	movl	$1, %edi
	call	exit
.LVL284:
.L392:
	.loc 1 1000 5 is_stmt 0
	movl	$192, %edi
	call	__asan_stack_malloc_2
.LVL285:
	testq	%rax, %rax
	cmovne	%rax, %r13
	jmp	.L289
	.cfi_endproc
.LFE12:
	.size	read_config, .-read_config
	.section	.rodata
	.align 32
.LC47:
	.string	"nobody"
	.zero	57
	.align 32
.LC48:
	.string	"iso-8859-1"
	.zero	53
	.align 32
.LC49:
	.string	""
	.zero	63
	.align 32
.LC50:
	.string	"-V"
	.zero	61
	.align 32
.LC51:
	.string	"thttpd/2.27.0 Oct 3, 2014"
	.zero	38
	.align 32
.LC52:
	.string	"-C"
	.zero	61
	.align 32
.LC53:
	.string	"-p"
	.zero	61
	.align 32
.LC54:
	.string	"-d"
	.zero	61
	.align 32
.LC55:
	.string	"-r"
	.zero	61
	.align 32
.LC56:
	.string	"-nor"
	.zero	59
	.align 32
.LC57:
	.string	"-dd"
	.zero	60
	.align 32
.LC58:
	.string	"-s"
	.zero	61
	.align 32
.LC59:
	.string	"-nos"
	.zero	59
	.align 32
.LC60:
	.string	"-u"
	.zero	61
	.align 32
.LC61:
	.string	"-c"
	.zero	61
	.align 32
.LC62:
	.string	"-t"
	.zero	61
	.align 32
.LC63:
	.string	"-h"
	.zero	61
	.align 32
.LC64:
	.string	"-l"
	.zero	61
	.align 32
.LC65:
	.string	"-v"
	.zero	61
	.align 32
.LC66:
	.string	"-nov"
	.zero	59
	.align 32
.LC67:
	.string	"-g"
	.zero	61
	.align 32
.LC68:
	.string	"-nog"
	.zero	59
	.align 32
.LC69:
	.string	"-i"
	.zero	61
	.align 32
.LC70:
	.string	"-T"
	.zero	61
	.align 32
.LC71:
	.string	"-P"
	.zero	61
	.align 32
.LC72:
	.string	"-M"
	.zero	61
	.align 32
.LC73:
	.string	"-D"
	.zero	61
	.text
	.p2align 4,,15
	.type	parse_args, @function
parse_args:
.LASANPC10:
.LFB10:
	.loc 1 837 5 is_stmt 1
	.cfi_startproc
.LVL286:
	.loc 1 838 5
	.loc 1 840 5
	.loc 1 841 10 is_stmt 0
	movl	$80, %eax
	.loc 1 837 5
	pushq	%r14
	.cfi_def_cfa_offset 16
	.cfi_offset 14, -16
	.loc 1 840 11
	movl	$0, debug(%rip)
	.loc 1 841 5 is_stmt 1
	.loc 1 837 5 is_stmt 0
	pushq	%r13
	.cfi_def_cfa_offset 24
	.cfi_offset 13, -24
	.loc 1 841 10
	movw	%ax, port(%rip)
	.loc 1 842 5 is_stmt 1
	.loc 1 837 5 is_stmt 0
	pushq	%r12
	.cfi_def_cfa_offset 32
	.cfi_offset 12, -32
	movl	%edi, %r12d
	pushq	%rbp
	.cfi_def_cfa_offset 40
	.cfi_offset 6, -40
	.loc 1 842 9
	movq	$0, dir(%rip)
	.loc 1 843 5 is_stmt 1
	.loc 1 837 5 is_stmt 0
	pushq	%rbx
	.cfi_def_cfa_offset 48
	.cfi_offset 3, -48
	.loc 1 843 14
	movq	$0, data_dir(%rip)
	.loc 1 847 5 is_stmt 1
	.loc 1 847 15 is_stmt 0
	movl	$0, do_chroot(%rip)
	.loc 1 849 5 is_stmt 1
	.loc 1 849 12 is_stmt 0
	movl	$0, no_log(%rip)
	.loc 1 850 5 is_stmt 1
	.loc 1 850 22 is_stmt 0
	movl	$0, no_symlink_check(%rip)
	.loc 1 854 5 is_stmt 1
	.loc 1 854 14 is_stmt 0
	movl	$0, do_vhost(%rip)
	.loc 1 859 5 is_stmt 1
	.loc 1 859 22 is_stmt 0
	movl	$0, do_global_passwd(%rip)
	.loc 1 864 5 is_stmt 1
	.loc 1 864 17 is_stmt 0
	movq	$0, cgi_pattern(%rip)
	.loc 1 869 5 is_stmt 1
	.loc 1 869 15 is_stmt 0
	movl	$0, cgi_limit(%rip)
	.loc 1 871 5 is_stmt 1
	.loc 1 871 17 is_stmt 0
	movq	$0, url_pattern(%rip)
	.loc 1 872 5 is_stmt 1
	.loc 1 872 23 is_stmt 0
	movl	$0, no_empty_referers(%rip)
	.loc 1 873 5 is_stmt 1
	.loc 1 873 19 is_stmt 0
	movq	$0, local_pattern(%rip)
	.loc 1 874 5 is_stmt 1
	.loc 1 874 18 is_stmt 0
	movq	$0, throttlefile(%rip)
	.loc 1 875 5 is_stmt 1
	.loc 1 875 14 is_stmt 0
	movq	$0, hostname(%rip)
	.loc 1 876 5 is_stmt 1
	.loc 1 876 13 is_stmt 0
	movq	$0, logfile(%rip)
	.loc 1 877 5 is_stmt 1
	.loc 1 877 13 is_stmt 0
	movq	$0, pidfile(%rip)
	.loc 1 878 5 is_stmt 1
	.loc 1 878 10 is_stmt 0
	movq	$.LC47, user(%rip)
	.loc 1 879 5 is_stmt 1
	.loc 1 879 13 is_stmt 0
	movq	$.LC48, charset(%rip)
	.loc 1 880 5 is_stmt 1
	.loc 1 880 9 is_stmt 0
	movq	$.LC49, p3p(%rip)
	.loc 1 881 5 is_stmt 1
	.loc 1 881 13 is_stmt 0
	movl	$-1, max_age(%rip)
	.loc 1 882 5 is_stmt 1
.LVL287:
	.loc 1 883 5
	.loc 1 883 11 is_stmt 0
	cmpl	$1, %edi
	jle	.L473
	.loc 1 883 32
	leaq	8(%rsi), %rdi
.LVL288:
	movq	%rsi, %r13
	movq	%rdi, %rax
	shrq	$3, %rax
	cmpb	$0, 2147450880(%rax)
	jne	.L501
	movq	8(%rsi), %rbx
	.loc 1 883 38
	movq	%rbx, %rax
	movq	%rbx, %rdx
	shrq	$3, %rax
	andl	$7, %edx
	movzbl	2147450880(%rax), %eax
	cmpb	%dl, %al
	jg	.L428
	testb	%al, %al
	jne	.L502
.L428:
	.loc 1 882 10
	movl	$1, %ebp
.LVL289:
	.p2align 4,,10
	.p2align 3
.L500:
	.loc 1 883 25
	cmpb	$45, (%rbx)
	jne	.L430
.LVL290:
	.loc 1 885 2 is_stmt 1
	.loc 1 885 7 is_stmt 0
	movl	$.LC50, %esi
	movq	%rbx, %rdi
	call	strcmp
.LVL291:
	.loc 1 885 5
	testl	%eax, %eax
	je	.L503
	.loc 1 890 7 is_stmt 1
	.loc 1 890 12 is_stmt 0
	movl	$.LC52, %esi
	movq	%rbx, %rdi
	call	strcmp
.LVL292:
	.loc 1 890 10
	testl	%eax, %eax
	jne	.L432
	.loc 1 890 52 discriminator 1
	leal	1(%rbp), %r14d
	.loc 1 890 44 discriminator 1
	cmpl	%r12d, %r14d
	jl	.L504
	.loc 1 895 7 is_stmt 1
	.loc 1 895 12 is_stmt 0
	movl	$.LC53, %esi
	movq	%rbx, %rdi
	call	strcmp
.LVL293:
	.loc 1 895 10
	testl	%eax, %eax
	je	.L437
.L436:
	.loc 1 900 7 is_stmt 1
	.loc 1 900 12 is_stmt 0
	movl	$.LC54, %esi
	movq	%rbx, %rdi
	call	strcmp
.LVL294:
	.loc 1 900 10
	testl	%eax, %eax
	jne	.L437
	.loc 1 900 52 discriminator 1
	leal	1(%rbp), %eax
	.loc 1 900 44 discriminator 1
	cmpl	%r12d, %eax
	jge	.L437
	.loc 1 902 6 is_stmt 1
.LVL295:
	.loc 1 903 6
	.loc 1 903 16 is_stmt 0
	movslq	%eax, %rdx
	leaq	0(%r13,%rdx,8), %rdi
	movq	%rdi, %rdx
	shrq	$3, %rdx
	cmpb	$0, 2147450880(%rdx)
	jne	.L505
	.loc 1 903 10
	movq	(%rdi), %rdx
	movl	%eax, %ebp
	movq	%rdx, dir(%rip)
.LVL296:
	.p2align 4,,10
	.p2align 3
.L435:
	.loc 1 981 2 is_stmt 1
	addl	$1, %ebp
.LVL297:
	.loc 1 883 11 is_stmt 0
	cmpl	%ebp, %r12d
	jle	.L426
.L508:
	.loc 1 883 32 discriminator 1
	movslq	%ebp, %rax
	leaq	0(%r13,%rax,8), %rdi
	movq	%rdi, %rax
	shrq	$3, %rax
	cmpb	$0, 2147450880(%rax)
	jne	.L506
	movq	(%rdi), %rbx
	.loc 1 883 38 discriminator 1
	movq	%rbx, %rax
	movq	%rbx, %rdx
	shrq	$3, %rax
	andl	$7, %edx
	movzbl	2147450880(%rax), %eax
	cmpb	%dl, %al
	jg	.L500
	testb	%al, %al
	je	.L500
	.loc 1 883 38
	movq	%rbx, %rdi
	call	__asan_report_load1
.LVL298:
	.p2align 4,,10
	.p2align 3
.L432:
	.loc 1 895 7 is_stmt 1
	.loc 1 895 12 is_stmt 0
	movl	$.LC53, %esi
	movq	%rbx, %rdi
	call	strcmp
.LVL299:
	.loc 1 895 10
	testl	%eax, %eax
	jne	.L436
	.loc 1 895 52 discriminator 1
	leal	1(%rbp), %r14d
	.loc 1 895 44 discriminator 1
	cmpl	%r12d, %r14d
	jge	.L437
	.loc 1 897 6 is_stmt 1
.LVL300:
	.loc 1 898 6
	.loc 1 898 40 is_stmt 0
	movslq	%r14d, %rax
	leaq	0(%r13,%rax,8), %rdi
	.loc 1 898 30
	movq	%rdi, %rax
	shrq	$3, %rax
	cmpb	$0, 2147450880(%rax)
	jne	.L507
	movq	(%rdi), %rdi
	.loc 1 898 11
	movl	%r14d, %ebp
	.loc 1 981 2
	addl	$1, %ebp
	.loc 1 898 30
	call	atoi
.LVL301:
	.loc 1 981 2 is_stmt 1
	.loc 1 898 13 is_stmt 0
	movw	%ax, port(%rip)
	.loc 1 883 11
	cmpl	%ebp, %r12d
	jg	.L508
.LVL302:
	.p2align 4,,10
	.p2align 3
.L426:
	.loc 1 983 5 is_stmt 1
	.loc 1 983 8 is_stmt 0
	cmpl	%ebp, %r12d
	jne	.L430
	.loc 1 985 5
	popq	%rbx
	.cfi_remember_state
	.cfi_def_cfa_offset 40
	popq	%rbp
	.cfi_def_cfa_offset 32
	popq	%r12
	.cfi_def_cfa_offset 24
.LVL303:
	popq	%r13
	.cfi_def_cfa_offset 16
	popq	%r14
	.cfi_def_cfa_offset 8
	ret
.LVL304:
	.p2align 4,,10
	.p2align 3
.L437:
	.cfi_restore_state
	.loc 1 905 7 is_stmt 1
	.loc 1 905 12 is_stmt 0
	movl	$.LC55, %esi
	movq	%rbx, %rdi
	call	strcmp
.LVL305:
	.loc 1 905 10
	testl	%eax, %eax
	jne	.L440
	.loc 1 907 6 is_stmt 1
	.loc 1 907 16 is_stmt 0
	movl	$1, do_chroot(%rip)
	.loc 1 908 6 is_stmt 1
	.loc 1 908 23 is_stmt 0
	movl	$1, no_symlink_check(%rip)
	jmp	.L435
	.p2align 4,,10
	.p2align 3
.L440:
	.loc 1 910 7 is_stmt 1
	.loc 1 910 12 is_stmt 0
	movl	$.LC56, %esi
	movq	%rbx, %rdi
	call	strcmp
.LVL306:
	.loc 1 910 10
	testl	%eax, %eax
	jne	.L441
	.loc 1 912 6 is_stmt 1
	.loc 1 912 16 is_stmt 0
	movl	$0, do_chroot(%rip)
	.loc 1 913 6 is_stmt 1
	.loc 1 913 23 is_stmt 0
	movl	$0, no_symlink_check(%rip)
	jmp	.L435
	.p2align 4,,10
	.p2align 3
.L504:
	.loc 1 892 6 is_stmt 1
.LVL307:
	.loc 1 893 6
	.loc 1 893 23 is_stmt 0
	movslq	%r14d, %rax
	leaq	0(%r13,%rax,8), %rdi
	.loc 1 893 6
	movq	%rdi, %rax
	shrq	$3, %rax
	cmpb	$0, 2147450880(%rax)
	jne	.L509
	movq	(%rdi), %rdi
	movl	%r14d, %ebp
	call	read_config
.LVL308:
	jmp	.L435
.LVL309:
	.p2align 4,,10
	.p2align 3
.L441:
	.loc 1 915 7 is_stmt 1
	.loc 1 915 12 is_stmt 0
	movl	$.LC57, %esi
	movq	%rbx, %rdi
	call	strcmp
.LVL310:
	.loc 1 915 10
	testl	%eax, %eax
	jne	.L442
	.loc 1 915 53 discriminator 1
	leal	1(%rbp), %eax
	.loc 1 915 45 discriminator 1
	cmpl	%r12d, %eax
	jge	.L442
	.loc 1 917 6 is_stmt 1
.LVL311:
	.loc 1 918 6
	.loc 1 918 21 is_stmt 0
	movslq	%eax, %rdx
	leaq	0(%r13,%rdx,8), %rdi
	movq	%rdi, %rdx
	shrq	$3, %rdx
	cmpb	$0, 2147450880(%rdx)
	jne	.L510
	.loc 1 918 15
	movq	(%rdi), %rdx
	movl	%eax, %ebp
	movq	%rdx, data_dir(%rip)
	jmp	.L435
.LVL312:
	.p2align 4,,10
	.p2align 3
.L442:
	.loc 1 920 7 is_stmt 1
	.loc 1 920 12 is_stmt 0
	movl	$.LC58, %esi
	movq	%rbx, %rdi
	call	strcmp
.LVL313:
	.loc 1 920 10
	testl	%eax, %eax
	jne	.L444
	.loc 1 921 6 is_stmt 1
	.loc 1 921 23 is_stmt 0
	movl	$0, no_symlink_check(%rip)
	jmp	.L435
.L444:
	.loc 1 922 7 is_stmt 1
	.loc 1 922 12 is_stmt 0
	movl	$.LC59, %esi
	movq	%rbx, %rdi
	call	strcmp
.LVL314:
	.loc 1 922 10
	testl	%eax, %eax
	jne	.L445
	.loc 1 923 6 is_stmt 1
	.loc 1 923 23 is_stmt 0
	movl	$1, no_symlink_check(%rip)
	jmp	.L435
.L445:
	.loc 1 924 7 is_stmt 1
	.loc 1 924 12 is_stmt 0
	movl	$.LC60, %esi
	movq	%rbx, %rdi
	call	strcmp
.LVL315:
	.loc 1 924 10
	testl	%eax, %eax
	jne	.L446
	.loc 1 924 52 discriminator 1
	leal	1(%rbp), %eax
	.loc 1 924 44 discriminator 1
	cmpl	%r12d, %eax
	jge	.L446
	.loc 1 926 6 is_stmt 1
.LVL316:
	.loc 1 927 6
	.loc 1 927 17 is_stmt 0
	movslq	%eax, %rdx
	leaq	0(%r13,%rdx,8), %rdi
	movq	%rdi, %rdx
	shrq	$3, %rdx
	cmpb	$0, 2147450880(%rdx)
	jne	.L511
	.loc 1 927 11
	movq	(%rdi), %rdx
	movl	%eax, %ebp
	movq	%rdx, user(%rip)
	jmp	.L435
.LVL317:
.L503:
	.loc 1 887 6 is_stmt 1
	.loc 1 887 13 is_stmt 0
	movl	$.LC51, %edi
	call	puts
.LVL318:
	.loc 1 888 6 is_stmt 1
	call	__asan_handle_no_return
.LVL319:
	xorl	%edi, %edi
	call	exit
.LVL320:
.L446:
	.loc 1 929 7
	.loc 1 929 12 is_stmt 0
	movl	$.LC61, %esi
	movq	%rbx, %rdi
	call	strcmp
.LVL321:
	.loc 1 929 10
	testl	%eax, %eax
	jne	.L448
	.loc 1 929 52 discriminator 1
	leal	1(%rbp), %eax
	.loc 1 929 44 discriminator 1
	cmpl	%r12d, %eax
	jge	.L448
	.loc 1 931 6 is_stmt 1
.LVL322:
	.loc 1 932 6
	.loc 1 932 24 is_stmt 0
	movslq	%eax, %rdx
	leaq	0(%r13,%rdx,8), %rdi
	movq	%rdi, %rdx
	shrq	$3, %rdx
	cmpb	$0, 2147450880(%rdx)
	jne	.L512
	.loc 1 932 18
	movq	(%rdi), %rdx
	movl	%eax, %ebp
	movq	%rdx, cgi_pattern(%rip)
	jmp	.L435
.LVL323:
.L448:
	.loc 1 934 7 is_stmt 1
	.loc 1 934 12 is_stmt 0
	movl	$.LC62, %esi
	movq	%rbx, %rdi
	call	strcmp
.LVL324:
	.loc 1 934 10
	testl	%eax, %eax
	jne	.L450
	.loc 1 934 52 discriminator 1
	leal	1(%rbp), %eax
	.loc 1 934 44 discriminator 1
	cmpl	%r12d, %eax
	jge	.L451
	.loc 1 936 6 is_stmt 1
.LVL325:
	.loc 1 937 6
	.loc 1 937 25 is_stmt 0
	movslq	%eax, %rdx
	leaq	0(%r13,%rdx,8), %rdi
	movq	%rdi, %rdx
	shrq	$3, %rdx
	cmpb	$0, 2147450880(%rdx)
	jne	.L513
	.loc 1 937 19
	movq	(%rdi), %rdx
	movl	%eax, %ebp
	movq	%rdx, throttlefile(%rip)
	jmp	.L435
.LVL326:
.L450:
	.loc 1 939 7 is_stmt 1
	.loc 1 939 12 is_stmt 0
	movl	$.LC63, %esi
	movq	%rbx, %rdi
	call	strcmp
.LVL327:
	.loc 1 939 10
	testl	%eax, %eax
	jne	.L453
	.loc 1 939 52 discriminator 1
	leal	1(%rbp), %eax
	.loc 1 939 44 discriminator 1
	cmpl	%r12d, %eax
	jge	.L454
	.loc 1 941 6 is_stmt 1
.LVL328:
	.loc 1 942 6
	.loc 1 942 21 is_stmt 0
	movslq	%eax, %rdx
	leaq	0(%r13,%rdx,8), %rdi
	movq	%rdi, %rdx
	shrq	$3, %rdx
	cmpb	$0, 2147450880(%rdx)
	jne	.L514
	.loc 1 942 15
	movq	(%rdi), %rdx
	movl	%eax, %ebp
	movq	%rdx, hostname(%rip)
	jmp	.L435
.LVL329:
.L451:
	.loc 1 939 7 is_stmt 1
	.loc 1 939 12 is_stmt 0
	movl	$.LC63, %esi
	movq	%rbx, %rdi
	call	strcmp
.LVL330:
	.loc 1 939 10
	testl	%eax, %eax
	je	.L454
.L453:
	.loc 1 944 7 is_stmt 1
	.loc 1 944 12 is_stmt 0
	movl	$.LC64, %esi
	movq	%rbx, %rdi
	call	strcmp
.LVL331:
	.loc 1 944 10
	testl	%eax, %eax
	jne	.L454
	.loc 1 944 52 discriminator 1
	leal	1(%rbp), %eax
	.loc 1 944 44 discriminator 1
	cmpl	%r12d, %eax
	jge	.L454
	.loc 1 946 6 is_stmt 1
.LVL332:
	.loc 1 947 6
	.loc 1 947 20 is_stmt 0
	movslq	%eax, %rdx
	leaq	0(%r13,%rdx,8), %rdi
	movq	%rdi, %rdx
	shrq	$3, %rdx
	cmpb	$0, 2147450880(%rdx)
	jne	.L515
	.loc 1 947 14
	movq	(%rdi), %rdx
	movl	%eax, %ebp
	movq	%rdx, logfile(%rip)
	jmp	.L435
.LVL333:
.L454:
	.loc 1 949 7 is_stmt 1
	.loc 1 949 12 is_stmt 0
	movl	$.LC65, %esi
	movq	%rbx, %rdi
	call	strcmp
.LVL334:
	.loc 1 949 10
	testl	%eax, %eax
	je	.L516
	.loc 1 951 7 is_stmt 1
	.loc 1 951 12 is_stmt 0
	movl	$.LC66, %esi
	movq	%rbx, %rdi
	call	strcmp
.LVL335:
	.loc 1 951 10
	testl	%eax, %eax
	jne	.L458
	.loc 1 952 6 is_stmt 1
	.loc 1 952 15 is_stmt 0
	movl	$0, do_vhost(%rip)
	jmp	.L435
.L516:
	.loc 1 950 6 is_stmt 1
	.loc 1 950 15 is_stmt 0
	movl	$1, do_vhost(%rip)
	jmp	.L435
.LVL336:
.L473:
	.loc 1 882 10
	movl	$1, %ebp
	jmp	.L426
.LVL337:
.L458:
	.loc 1 953 7 is_stmt 1
	.loc 1 953 12 is_stmt 0
	movl	$.LC67, %esi
	movq	%rbx, %rdi
	call	strcmp
.LVL338:
	.loc 1 953 10
	testl	%eax, %eax
	jne	.L459
	.loc 1 954 6 is_stmt 1
	.loc 1 954 23 is_stmt 0
	movl	$1, do_global_passwd(%rip)
	jmp	.L435
.L459:
	.loc 1 955 7 is_stmt 1
	.loc 1 955 12 is_stmt 0
	movl	$.LC68, %esi
	movq	%rbx, %rdi
	call	strcmp
.LVL339:
	.loc 1 955 10
	testl	%eax, %eax
	jne	.L460
	.loc 1 956 6 is_stmt 1
	.loc 1 956 23 is_stmt 0
	movl	$0, do_global_passwd(%rip)
	jmp	.L435
.L506:
	.loc 1 883 32
	call	__asan_report_load8
.LVL340:
.L460:
	.loc 1 957 7 is_stmt 1
	.loc 1 957 12 is_stmt 0
	movl	$.LC69, %esi
	movq	%rbx, %rdi
	call	strcmp
.LVL341:
	.loc 1 957 10
	testl	%eax, %eax
	jne	.L461
	.loc 1 957 52 discriminator 1
	leal	1(%rbp), %eax
	.loc 1 957 44 discriminator 1
	cmpl	%r12d, %eax
	jge	.L462
	.loc 1 959 6 is_stmt 1
.LVL342:
	.loc 1 960 6
	.loc 1 960 20 is_stmt 0
	movslq	%eax, %rdx
	leaq	0(%r13,%rdx,8), %rdi
	movq	%rdi, %rdx
	shrq	$3, %rdx
	cmpb	$0, 2147450880(%rdx)
	jne	.L517
	.loc 1 960 14
	movq	(%rdi), %rdx
	movl	%eax, %ebp
	movq	%rdx, pidfile(%rip)
	jmp	.L435
.LVL343:
.L461:
	.loc 1 962 7 is_stmt 1
	.loc 1 962 12 is_stmt 0
	movl	$.LC70, %esi
	movq	%rbx, %rdi
	call	strcmp
.LVL344:
	.loc 1 962 10
	testl	%eax, %eax
	jne	.L464
	.loc 1 962 52 discriminator 1
	leal	1(%rbp), %eax
	.loc 1 962 44 discriminator 1
	cmpl	%r12d, %eax
	jge	.L462
	.loc 1 964 6 is_stmt 1
.LVL345:
	.loc 1 965 6
	.loc 1 965 20 is_stmt 0
	movslq	%eax, %rdx
	leaq	0(%r13,%rdx,8), %rdi
	movq	%rdi, %rdx
	shrq	$3, %rdx
	cmpb	$0, 2147450880(%rdx)
	jne	.L518
	.loc 1 965 14
	movq	(%rdi), %rdx
	movl	%eax, %ebp
	movq	%rdx, charset(%rip)
	jmp	.L435
.LVL346:
.L462:
	.loc 1 967 7 is_stmt 1
	.loc 1 967 12 is_stmt 0
	movl	$.LC71, %esi
	movq	%rbx, %rdi
	call	strcmp
.LVL347:
	.loc 1 967 10
	testl	%eax, %eax
	je	.L467
.L466:
	.loc 1 972 7 is_stmt 1
	.loc 1 972 12 is_stmt 0
	movl	$.LC72, %esi
	movq	%rbx, %rdi
	call	strcmp
.LVL348:
	.loc 1 972 10
	testl	%eax, %eax
	jne	.L467
	.loc 1 972 52 discriminator 1
	leal	1(%rbp), %r14d
	.loc 1 972 44 discriminator 1
	cmpl	%r12d, %r14d
	jge	.L467
	.loc 1 974 6 is_stmt 1
.LVL349:
	.loc 1 975 6
	.loc 1 975 26 is_stmt 0
	movslq	%r14d, %rax
	leaq	0(%r13,%rax,8), %rdi
	.loc 1 975 16
	movq	%rdi, %rax
	shrq	$3, %rax
	cmpb	$0, 2147450880(%rax)
	jne	.L519
	movq	(%rdi), %rdi
	.loc 1 975 14
	movl	%r14d, %ebp
	.loc 1 975 16
	call	atoi
.LVL350:
	.loc 1 975 14
	movl	%eax, max_age(%rip)
	jmp	.L435
.LVL351:
.L464:
	.loc 1 967 7 is_stmt 1
	.loc 1 967 12 is_stmt 0
	movl	$.LC71, %esi
	movq	%rbx, %rdi
	call	strcmp
.LVL352:
	.loc 1 967 10
	testl	%eax, %eax
	jne	.L466
	.loc 1 967 52 discriminator 1
	leal	1(%rbp), %eax
	.loc 1 967 44 discriminator 1
	cmpl	%r12d, %eax
	jge	.L467
	.loc 1 969 6 is_stmt 1
.LVL353:
	.loc 1 970 6
	.loc 1 970 16 is_stmt 0
	movslq	%eax, %rdx
	leaq	0(%r13,%rdx,8), %rdi
	movq	%rdi, %rdx
	shrq	$3, %rdx
	cmpb	$0, 2147450880(%rdx)
	jne	.L520
	.loc 1 970 10
	movq	(%rdi), %rdx
	movl	%eax, %ebp
	movq	%rdx, p3p(%rip)
	jmp	.L435
.LVL354:
.L467:
	.loc 1 977 7 is_stmt 1
	.loc 1 977 12 is_stmt 0
	movl	$.LC73, %esi
	movq	%rbx, %rdi
	call	strcmp
.LVL355:
	.loc 1 977 10
	testl	%eax, %eax
	jne	.L430
	.loc 1 978 6 is_stmt 1
	.loc 1 978 12 is_stmt 0
	movl	$1, debug(%rip)
	jmp	.L435
.LVL356:
.L507:
	.loc 1 898 30
	call	__asan_report_load8
.LVL357:
.L505:
	.loc 1 903 16
	call	__asan_report_load8
.LVL358:
.L509:
	.loc 1 893 6
	call	__asan_report_load8
.LVL359:
.L510:
	.loc 1 918 21
	call	__asan_report_load8
.LVL360:
.L513:
	.loc 1 937 25
	call	__asan_report_load8
.LVL361:
.L512:
	.loc 1 932 24
	call	__asan_report_load8
.LVL362:
.L501:
	.loc 1 883 32
	call	__asan_report_load8
.LVL363:
.L502:
	.loc 1 883 38
	movq	%rbx, %rdi
	call	__asan_report_load1
.LVL364:
.L430:
	.loc 1 980 6 is_stmt 1
	call	__asan_handle_no_return
.LVL365:
	call	usage
.LVL366:
.L511:
	.loc 1 927 17 is_stmt 0
	call	__asan_report_load8
.LVL367:
.L514:
	.loc 1 942 21
	call	__asan_report_load8
.LVL368:
.L515:
	.loc 1 947 20
	call	__asan_report_load8
.LVL369:
.L517:
	.loc 1 960 20
	call	__asan_report_load8
.LVL370:
.L518:
	.loc 1 965 20
	call	__asan_report_load8
.LVL371:
.L519:
	.loc 1 975 16
	call	__asan_report_load8
.LVL372:
.L520:
	.loc 1 970 16
	call	__asan_report_load8
.LVL373:
	.cfi_endproc
.LFE10:
	.size	parse_args, .-parse_args
	.globl	__asan_stack_malloc_8
	.section	.rodata.str1.8,"aMS",@progbits,1
	.align 8
.LC74:
	.string	"5 32 8 9 max_limit 96 8 9 min_limit 160 16 2 tv 224 5000 3 buf 5280 5000 7 pattern "
	.globl	__asan_stack_free_8
	.section	.rodata
	.align 32
.LC75:
	.string	"%.80s - %m"
	.zero	53
	.align 32
.LC76:
	.string	" %4900[^ \t] %ld"
	.zero	48
	.align 32
.LC77:
	.string	"unparsable line in %.80s - %.80s"
	.zero	63
	.align 32
.LC78:
	.string	"%s: unparsable line in %.80s - %.80s\n"
	.zero	58
	.align 32
.LC79:
	.string	"|/"
	.zero	61
	.align 32
.LC80:
	.string	"out of memory allocating a throttletab"
	.zero	57
	.align 32
.LC81:
	.string	"%s: out of memory allocating a throttletab\n"
	.zero	52
	.align 32
.LC82:
	.string	" %4900[^ \t] %ld-%ld"
	.zero	44
	.text
	.p2align 4,,15
	.type	read_throttlefile, @function
read_throttlefile:
.LASANPC17:
.LFB17:
	.loc 1 1370 5 is_stmt 1
	.cfi_startproc
.LVL374:
	pushq	%r15
	.cfi_def_cfa_offset 16
	.cfi_offset 15, -16
	pushq	%r14
	.cfi_def_cfa_offset 24
	.cfi_offset 14, -24
	pushq	%r13
	.cfi_def_cfa_offset 32
	.cfi_offset 13, -32
	pushq	%r12
	.cfi_def_cfa_offset 40
	.cfi_offset 12, -40
	pushq	%rbp
	.cfi_def_cfa_offset 48
	.cfi_offset 6, -48
	pushq	%rbx
	.cfi_def_cfa_offset 56
	.cfi_offset 3, -56
	subq	$10392, %rsp
	.cfi_def_cfa_offset 10448
	leaq	48(%rsp), %rax
	movq	%rdi, 24(%rsp)
	movq	%rax, 32(%rsp)
	movl	__asan_option_detect_stack_use_after_return(%rip), %eax
	testl	%eax, %eax
	jne	.L610
.LVL375:
.L521:
	.loc 1 1371 5
	.loc 1 1372 5
	.loc 1 1373 5
	.loc 1 1374 5
	.loc 1 1375 5
	.loc 1 1376 5
	.loc 1 1377 5
	.loc 1 1379 5
	.loc 1 1370 5 is_stmt 0
	movq	32(%rsp), %rax
	.loc 1 1379 10
	movl	$.LC16, %esi
	.loc 1 1370 5
	movq	$1102416563, (%rax)
.LVL376:
	leaq	10336(%rax), %r13
	movq	$.LC74, 8(%rax)
	movq	$.LASANPC17, 16(%rax)
	shrq	$3, %rax
	.loc 1 1379 10
	movq	24(%rsp), %rdi
	.loc 1 1370 5
	movq	%rax, 40(%rsp)
	movl	$-235802127, 2147450880(%rax)
	movl	$-218959360, 2147450884(%rax)
	movl	$-218959118, 2147450888(%rax)
	movl	$-218959360, 2147450892(%rax)
	movl	$-218959118, 2147450896(%rax)
	movl	$-219021312, 2147450900(%rax)
	movl	$-218959118, 2147450904(%rax)
	movl	$-218959360, 2147451532(%rax)
	movl	$-218959118, 2147451536(%rax)
	movl	$-218959360, 2147452164(%rax)
	movl	$-202116109, 2147452168(%rax)
	.loc 1 1379 10
	call	fopen
.LVL377:
	movq	%rax, %r14
.LVL378:
	.loc 1 1380 5 is_stmt 1
	.loc 1 1380 8 is_stmt 0
	testq	%rax, %rax
	je	.L611
	.loc 1 1387 5 is_stmt 1
	.loc 1 1387 12 is_stmt 0
	movq	32(%rsp), %rbx
	xorl	%esi, %esi
	leaq	160(%rbx), %rdi
	leaq	224(%rbx), %rbp
	call	gettimeofday
.LVL379:
	.loc 1 1389 5 is_stmt 1
	movq	%rbx, %rax
	.loc 1 1399 23 is_stmt 0
	movabsq	$4294977024, %rbx
	addq	$223, %rax
	movq	%rax, (%rsp)
	.p2align 4,,10
	.p2align 3
.L530:
	.loc 1 1389 13
	movq	%r14, %rdx
	movl	$5000, %esi
	movq	%rbp, %rdi
	call	fgets
.LVL380:
	.loc 1 1389 11
	testq	%rax, %rax
	je	.L612
	.loc 1 1392 2 is_stmt 1
	.loc 1 1392 7 is_stmt 0
	movl	$35, %esi
	movq	%rbp, %rdi
	call	strchr
.LVL381:
	.loc 1 1393 2 is_stmt 1
	.loc 1 1393 5 is_stmt 0
	testq	%rax, %rax
	je	.L527
	.loc 1 1394 6 is_stmt 1
	.loc 1 1394 10 is_stmt 0
	movq	%rax, %rdx
	movq	%rax, %rcx
	shrq	$3, %rdx
	andl	$7, %ecx
	movzbl	2147450880(%rdx), %edx
	cmpb	%cl, %dl
	jg	.L528
	testb	%dl, %dl
	jne	.L613
.L528:
	movb	$0, (%rax)
.L527:
	.loc 1 1397 2 is_stmt 1
	.loc 1 1397 8 is_stmt 0
	movq	%rbp, %rdi
	call	strlen
.LVL382:
	.loc 1 1398 2 is_stmt 1
	.loc 1 1398 8 is_stmt 0
	testq	%rax, %rax
	je	.L530
	.loc 1 1399 12
	leal	-1(%rax), %edx
	.loc 1 1399 8
	movslq	%edx, %rdi
	leaq	0(%rbp,%rdi), %rcx
	movq	%rcx, %rsi
	movq	%rcx, %r8
	shrq	$3, %rsi
	andl	$7, %r8d
	movzbl	2147450880(%rsi), %esi
	cmpb	%r8b, %sil
	jg	.L531
	testb	%sil, %sil
	jne	.L614
.L531:
	.loc 1 1399 23
	movzbl	-10112(%r13,%rdi), %ecx
	cmpb	$32, %cl
	jbe	.L615
.LVL383:
	.p2align 4,,10
	.p2align 3
.L532:
	.loc 1 1404 2 is_stmt 1
	.loc 1 1408 2
	.loc 1 1408 7 is_stmt 0
	leaq	-10240(%r13), %rax
	leaq	-10304(%r13), %r15
	movl	$.LC82, %esi
	movq	%rbp, %rdi
	leaq	-5056(%r13), %r12
	movq	%rax, 8(%rsp)
	movq	%rax, %rcx
	movq	%r15, %r8
	xorl	%eax, %eax
	movq	%r12, %rdx
	call	__isoc99_sscanf
.LVL384:
	.loc 1 1408 5
	cmpl	$3, %eax
	je	.L539
	.loc 1 1410 7 is_stmt 1
	.loc 1 1410 12 is_stmt 0
	xorl	%eax, %eax
	movq	%r15, %rcx
	movq	%r12, %rdx
	movl	$.LC76, %esi
	movq	%rbp, %rdi
	call	__isoc99_sscanf
.LVL385:
	.loc 1 1410 10
	cmpl	$2, %eax
	je	.L616
	.loc 1 1414 6 is_stmt 1
	movq	24(%rsp), %rdx
	xorl	%eax, %eax
	movq	%rbp, %rcx
	movl	$.LC77, %esi
	movl	$2, %edi
	call	syslog
.LVL386:
	.loc 1 1416 6
	.loc 1 1416 13 is_stmt 0
	movl	$stderr, %eax
	.loc 1 1416 6
	movq	argv0(%rip), %rdx
	.loc 1 1416 13
	shrq	$3, %rax
	cmpb	$0, 2147450880(%rax)
	jne	.L617
	movq	24(%rsp), %rcx
	movq	%rbp, %r8
	movl	$.LC78, %esi
	xorl	%eax, %eax
	movq	stderr(%rip), %rdi
	call	fprintf
.LVL387:
	.loc 1 1419 6 is_stmt 1
	jmp	.L530
.LVL388:
	.p2align 4,,10
	.p2align 3
.L615:
	.loc 1 1400 24 is_stmt 0
	btq	%rcx, %rbx
	jnc	.L532
	movslq	%eax, %rsi
	movl	%edx, %edx
	addq	(%rsp), %rsi
	addq	%rbp, %rdi
	subq	%rdx, %rsi
.LVL389:
	.p2align 4,,10
	.p2align 3
.L536:
	.loc 1 1401 6 is_stmt 1
	.loc 1 1401 17 is_stmt 0
	movq	%rdi, %rax
	movq	%rdi, %rdx
	shrq	$3, %rax
	andl	$7, %edx
	movzbl	2147450880(%rax), %eax
	cmpb	%dl, %al
	jg	.L533
	testb	%al, %al
	jne	.L618
.L533:
	movb	$0, (%rdi)
	.loc 1 1398 8
	cmpq	%rsi, %rdi
	je	.L530
	.loc 1 1399 8 discriminator 1
	leaq	-1(%rdi), %rax
	movq	%rax, %rdx
	movq	%rax, %rcx
	shrq	$3, %rdx
	andl	$7, %ecx
	movzbl	2147450880(%rdx), %edx
	cmpb	%cl, %dl
	jg	.L535
	testb	%dl, %dl
	jne	.L619
.L535:
	.loc 1 1399 23 discriminator 1
	movzbl	-1(%rdi), %edx
	cmpb	$32, %dl
	ja	.L532
	.loc 1 1400 24 discriminator 1
	btq	%rdx, %rbx
	movq	%rax, %rdi
.LVL390:
	jc	.L536
	jmp	.L532
	.p2align 4,,10
	.p2align 3
.L616:
	.loc 1 1411 6 is_stmt 1
	.loc 1 1411 16 is_stmt 0
	movq	8(%rsp), %rax
	shrq	$3, %rax
	cmpb	$0, 2147450880(%rax)
	jne	.L620
	movq	$0, -10240(%r13)
.L539:
	.loc 1 1423 2 is_stmt 1
	.loc 1 1423 14 is_stmt 0
	movq	%r12, %rax
	shrq	$3, %rax
	movzbl	2147450880(%rax), %eax
	testb	%al, %al
	je	.L542
	jle	.L621
.L542:
	.loc 1 1423 5
	cmpb	$47, -5056(%r13)
	jne	.L544
	jmp	.L622
.LVL391:
	.p2align 4,,10
	.p2align 3
.L545:
	.loc 1 1426 6 is_stmt 1
	.loc 1 1426 32 is_stmt 0
	leaq	2(%rax), %rsi
	.loc 1 1426 13
	leaq	1(%rax), %rdi
	call	strcpy
.LVL392:
.L544:
	.loc 1 1425 17
	movl	$.LC79, %esi
	movq	%r12, %rdi
	call	strstr
.LVL393:
	.loc 1 1425 8
	testq	%rax, %rax
	jne	.L545
	.loc 1 1429 2 is_stmt 1
	.loc 1 1429 20 is_stmt 0
	movslq	numthrottles(%rip), %rdx
	movl	maxthrottles(%rip), %eax
.LVL394:
	.loc 1 1429 5
	cmpl	%eax, %edx
	jl	.L546
	.loc 1 1431 6 is_stmt 1
	.loc 1 1431 9 is_stmt 0
	testl	%eax, %eax
	jne	.L547
	.loc 1 1433 3 is_stmt 1
	.loc 1 1433 16 is_stmt 0
	movl	$100, maxthrottles(%rip)
	.loc 1 1434 3 is_stmt 1
	.loc 1 1434 15 is_stmt 0
	movl	$4800, %edi
	call	malloc
.LVL395:
	.loc 1 1434 13
	movq	%rax, throttles(%rip)
.L548:
	.loc 1 1441 6 is_stmt 1
	.loc 1 1441 9 is_stmt 0
	testq	%rax, %rax
	je	.L549
	movslq	numthrottles(%rip), %rdx
.L550:
	.loc 1 1452 2 is_stmt 1
	.loc 1 1452 11 is_stmt 0
	leaq	(%rdx,%rdx,2), %rdx
	.loc 1 1452 36
	movq	%r12, %rdi
	.loc 1 1452 11
	salq	$4, %rdx
	addq	%rax, %rdx
	movq	%rdx, 16(%rsp)
	.loc 1 1452 36
	call	e_strdup
.LVL396:
	.loc 1 1452 34
	movq	16(%rsp), %rdx
	movq	%rdx, %rcx
	shrq	$3, %rcx
	cmpb	$0, 2147450880(%rcx)
	jne	.L623
	movq	%rax, (%rdx)
	.loc 1 1453 2 is_stmt 1
	.loc 1 1453 11 is_stmt 0
	movslq	numthrottles(%rip), %rax
	.loc 1 1453 36
	movq	%r15, %rcx
	shrq	$3, %rcx
	.loc 1 1453 11
	movq	%rax, %rdx
	leaq	(%rax,%rax,2), %rax
	salq	$4, %rax
	addq	throttles(%rip), %rax
	.loc 1 1453 36
	cmpb	$0, 2147450880(%rcx)
	jne	.L624
	leaq	8(%rax), %rdi
	movq	-10304(%r13), %rcx
	movq	%rdi, %rsi
	shrq	$3, %rsi
	cmpb	$0, 2147450880(%rsi)
	jne	.L625
	movq	%rcx, 8(%rax)
	.loc 1 1454 2 is_stmt 1
	.loc 1 1454 36 is_stmt 0
	movq	8(%rsp), %rcx
	shrq	$3, %rcx
	cmpb	$0, 2147450880(%rcx)
	jne	.L626
	leaq	16(%rax), %rdi
	movq	-10240(%r13), %rcx
	movq	%rdi, %rsi
	shrq	$3, %rsi
	cmpb	$0, 2147450880(%rsi)
	jne	.L627
	.loc 1 1455 31
	leaq	24(%rax), %rdi
	.loc 1 1454 36
	movq	%rcx, 16(%rax)
	.loc 1 1455 2 is_stmt 1
	.loc 1 1455 31 is_stmt 0
	movq	%rdi, %rcx
	shrq	$3, %rcx
	cmpb	$0, 2147450880(%rcx)
	jne	.L628
	.loc 1 1456 42
	leaq	32(%rax), %rdi
	.loc 1 1455 31
	movq	$0, 24(%rax)
	.loc 1 1456 2 is_stmt 1
	.loc 1 1456 42 is_stmt 0
	movq	%rdi, %rcx
	shrq	$3, %rcx
	cmpb	$0, 2147450880(%rcx)
	jne	.L629
	.loc 1 1457 38
	leaq	40(%rax), %rdi
	.loc 1 1456 42
	movq	$0, 32(%rax)
	.loc 1 1457 2 is_stmt 1
	.loc 1 1457 38 is_stmt 0
	movq	%rdi, %rcx
	shrq	$3, %rcx
	movzbl	2147450880(%rcx), %ecx
	testb	%cl, %cl
	je	.L559
	cmpb	$3, %cl
	jle	.L630
.L559:
	movl	$0, 40(%rax)
	.loc 1 1459 2 is_stmt 1
	leal	1(%rdx), %eax
	movl	%eax, numthrottles(%rip)
	jmp	.L530
.L547:
	.loc 1 1438 3
	.loc 1 1438 16 is_stmt 0
	addl	%eax, %eax
	.loc 1 1439 15
	movq	throttles(%rip), %rdi
	.loc 1 1438 16
	movl	%eax, maxthrottles(%rip)
	.loc 1 1439 3 is_stmt 1
	.loc 1 1439 15 is_stmt 0
	cltq
	leaq	(%rax,%rax,2), %rsi
	salq	$4, %rsi
	call	realloc
.LVL397:
	.loc 1 1439 13
	movq	%rax, throttles(%rip)
	jmp	.L548
.L546:
	movq	throttles(%rip), %rax
	jmp	.L550
.L622:
	.loc 1 1424 6 is_stmt 1
	.loc 1 1424 13 is_stmt 0
	leaq	1(%r12), %rsi
	movq	%r12, %rdi
	call	strcpy
.LVL398:
	jmp	.L544
.L612:
	.loc 1 1461 5 is_stmt 1
	.loc 1 1461 12 is_stmt 0
	movq	%r14, %rdi
	call	fclose
.LVL399:
	.loc 1 1370 5
	leaq	48(%rsp), %rax
	cmpq	32(%rsp), %rax
	jne	.L631
	movq	40(%rsp), %rax
	pxor	%xmm0, %xmm0
	movq	$0, 2147450896(%rax)
	movl	$0, 2147450904(%rax)
	movq	$0, 2147451532(%rax)
	movq	$0, 2147452164(%rax)
	movups	%xmm0, 2147450880(%rax)
.L523:
	.loc 1 1462 5
	addq	$10392, %rsp
	.cfi_remember_state
	.cfi_def_cfa_offset 56
	popq	%rbx
	.cfi_def_cfa_offset 48
	popq	%rbp
	.cfi_def_cfa_offset 40
	popq	%r12
	.cfi_def_cfa_offset 32
	popq	%r13
	.cfi_def_cfa_offset 24
	popq	%r14
	.cfi_def_cfa_offset 16
.LVL400:
	popq	%r15
	.cfi_def_cfa_offset 8
	ret
.LVL401:
.L618:
	.cfi_restore_state
	.loc 1 1401 17
	call	__asan_report_store1
.LVL402:
.L619:
	.loc 1 1399 8
	movq	%rax, %rdi
.LVL403:
	call	__asan_report_load1
.LVL404:
.L621:
	.loc 1 1423 14
	movq	%r12, %rdi
	call	__asan_report_load1
.LVL405:
.L625:
	.loc 1 1453 36
	call	__asan_report_store8
.LVL406:
.L624:
	movq	%r15, %rdi
	call	__asan_report_load8
.LVL407:
.L613:
	.loc 1 1394 10
	movq	%rax, %rdi
	call	__asan_report_store1
.LVL408:
.L611:
	.loc 1 1382 2 is_stmt 1
	movq	24(%rsp), %rbx
	movl	$.LC75, %esi
	xorl	%eax, %eax
.LVL409:
	movl	$2, %edi
	movq	%rbx, %rdx
	call	syslog
.LVL410:
	.loc 1 1383 2
	movq	%rbx, %rdi
	call	perror
.LVL411:
	.loc 1 1384 2
	call	__asan_handle_no_return
.LVL412:
	movl	$1, %edi
	call	exit
.LVL413:
.L610:
	.loc 1 1370 5 is_stmt 0
	movl	$10336, %edi
.LVL414:
	call	__asan_stack_malloc_8
.LVL415:
	testq	%rax, %rax
	cmove	32(%rsp), %rax
	movq	%rax, 32(%rsp)
	jmp	.L521
.LVL416:
.L631:
	movq	32(%rsp), %rax
	leaq	48(%rsp), %rdx
	movl	$10336, %esi
	movq	$1172321806, (%rax)
	movq	%rax, %rdi
	call	__asan_stack_free_8
.LVL417:
	jmp	.L523
.L620:
	.loc 1 1411 16
	movq	8(%rsp), %rdi
	call	__asan_report_store8
.LVL418:
.L630:
	.loc 1 1457 38
	call	__asan_report_store4
.LVL419:
.L623:
	.loc 1 1452 34
	movq	%rdx, %rdi
	call	__asan_report_store8
.LVL420:
.L549:
	.loc 1 1443 3 is_stmt 1
	xorl	%eax, %eax
	movl	$.LC80, %esi
	movl	$2, %edi
	call	syslog
.LVL421:
	.loc 1 1444 3
	.loc 1 1444 10 is_stmt 0
	movl	$stderr, %eax
	.loc 1 1444 3
	movq	argv0(%rip), %rdx
	.loc 1 1444 10
	shrq	$3, %rax
	cmpb	$0, 2147450880(%rax)
	jne	.L632
	movq	stderr(%rip), %rdi
	movl	$.LC81, %esi
	xorl	%eax, %eax
	call	fprintf
.LVL422:
	.loc 1 1447 3 is_stmt 1
	call	__asan_handle_no_return
.LVL423:
	movl	$1, %edi
	call	exit
.LVL424:
.L627:
	.loc 1 1454 36 is_stmt 0
	call	__asan_report_store8
.LVL425:
.L626:
	movq	8(%rsp), %rdi
	call	__asan_report_load8
.LVL426:
.L632:
	.loc 1 1444 10
	movl	$stderr, %edi
	call	__asan_report_load8
.LVL427:
.L617:
	.loc 1 1416 13
	movl	$stderr, %edi
	call	__asan_report_load8
.LVL428:
.L614:
	.loc 1 1399 8
	movq	%rcx, %rdi
	call	__asan_report_load1
.LVL429:
.L629:
	.loc 1 1456 42
	call	__asan_report_store8
.LVL430:
.L628:
	.loc 1 1455 31
	call	__asan_report_store8
.LVL431:
	.cfi_endproc
.LFE17:
	.size	read_throttlefile, .-read_throttlefile
	.section	.rodata
	.align 32
.LC83:
	.string	"-"
	.zero	62
	.align 32
.LC84:
	.string	"re-opening logfile"
	.zero	45
	.align 32
.LC85:
	.string	"a"
	.zero	62
	.align 32
.LC86:
	.string	"re-opening %.80s - %m"
	.zero	42
	.text
	.p2align 4,,15
	.type	re_open_logfile, @function
re_open_logfile:
.LASANPC8:
.LFB8:
	.loc 1 327 5 is_stmt 1
	.cfi_startproc
	.loc 1 328 5
	.loc 1 329 5
	.loc 1 331 5
	.loc 1 331 8 is_stmt 0
	movl	no_log(%rip), %eax
	testl	%eax, %eax
	jne	.L645
	.loc 1 331 17 discriminator 1
	cmpq	$0, hs(%rip)
	je	.L645
	.loc 1 335 5 is_stmt 1
	.loc 1 335 18 is_stmt 0
	movq	logfile(%rip), %rdi
	.loc 1 335 8
	testq	%rdi, %rdi
	je	.L645
	.loc 1 327 5 discriminator 1
	pushq	%rbp
	.cfi_def_cfa_offset 16
	.cfi_offset 6, -16
	.loc 1 335 34 discriminator 1
	movl	$.LC83, %esi
	.loc 1 327 5 discriminator 1
	pushq	%rbx
	.cfi_def_cfa_offset 24
	.cfi_offset 3, -24
	subq	$8, %rsp
	.cfi_def_cfa_offset 32
	.loc 1 335 34 discriminator 1
	call	strcmp
.LVL432:
	.loc 1 335 31 discriminator 1
	testl	%eax, %eax
	jne	.L648
	.loc 1 348 5
	addq	$8, %rsp
	.cfi_def_cfa_offset 24
	popq	%rbx
	.cfi_def_cfa_offset 16
	popq	%rbp
	.cfi_def_cfa_offset 8
	ret
	.p2align 4,,10
	.p2align 3
.L645:
	.cfi_restore 3
	.cfi_restore 6
	ret
	.p2align 4,,10
	.p2align 3
.L648:
	.cfi_def_cfa_offset 32
	.cfi_offset 3, -24
	.cfi_offset 6, -16
	.loc 1 337 2 is_stmt 1
	xorl	%eax, %eax
	movl	$.LC84, %esi
	movl	$5, %edi
	call	syslog
.LVL433:
	.loc 1 338 2
	.loc 1 338 10 is_stmt 0
	movq	logfile(%rip), %rdi
	movl	$.LC85, %esi
	call	fopen
.LVL434:
	.loc 1 339 13
	movq	logfile(%rip), %rbp
	movl	$384, %esi
	.loc 1 338 10
	movq	%rax, %rbx
.LVL435:
	.loc 1 339 2 is_stmt 1
	.loc 1 339 13 is_stmt 0
	movq	%rbp, %rdi
	call	chmod
.LVL436:
	.loc 1 340 2 is_stmt 1
	.loc 1 340 5 is_stmt 0
	testq	%rbx, %rbx
	je	.L637
	testl	%eax, %eax
	jne	.L637
	.loc 1 345 2 is_stmt 1
	.loc 1 345 9 is_stmt 0
	movq	%rbx, %rdi
	call	fileno
.LVL437:
	movl	$2, %esi
	movl	$1, %edx
	movl	%eax, %edi
	xorl	%eax, %eax
	call	fcntl
.LVL438:
	.loc 1 346 2 is_stmt 1
	movq	hs(%rip), %rdi
	.loc 1 348 5 is_stmt 0
	addq	$8, %rsp
	.cfi_remember_state
	.cfi_def_cfa_offset 24
	.loc 1 346 2
	movq	%rbx, %rsi
	.loc 1 348 5
	popq	%rbx
	.cfi_restore 3
	.cfi_def_cfa_offset 16
.LVL439:
	popq	%rbp
	.cfi_restore 6
	.cfi_def_cfa_offset 8
	.loc 1 346 2
	jmp	httpd_set_logfp
.LVL440:
	.p2align 4,,10
	.p2align 3
.L637:
	.cfi_restore_state
	.loc 1 342 6 is_stmt 1
	.loc 1 348 5 is_stmt 0
	addq	$8, %rsp
	.cfi_def_cfa_offset 24
	.loc 1 342 6
	movq	%rbp, %rdx
	movl	$.LC86, %esi
	xorl	%eax, %eax
.LVL441:
	.loc 1 348 5
	popq	%rbx
	.cfi_restore 3
	.cfi_def_cfa_offset 16
.LVL442:
	.loc 1 342 6
	movl	$2, %edi
	.loc 1 348 5
	popq	%rbp
	.cfi_restore 6
	.cfi_def_cfa_offset 8
	.loc 1 342 6
	jmp	syslog
.LVL443:
	.cfi_endproc
.LFE8:
	.size	re_open_logfile, .-re_open_logfile
	.section	.rodata
	.align 32
.LC87:
	.string	"too many connections!"
	.zero	42
	.align 32
.LC88:
	.string	"the connects free list is messed up"
	.zero	60
	.align 32
.LC89:
	.string	"out of memory allocating an httpd_conn"
	.zero	57
	.text
	.p2align 4,,15
	.type	handle_newconnect, @function
handle_newconnect:
.LASANPC19:
.LFB19:
	.loc 1 1505 5 is_stmt 1
	.cfi_startproc
.LVL444:
	pushq	%r14
	.cfi_def_cfa_offset 16
	.cfi_offset 14, -16
	pushq	%r13
	.cfi_def_cfa_offset 24
	.cfi_offset 13, -24
	.loc 1 1566 20 is_stmt 0
	movq	%rdi, %r13
	.loc 1 1505 5
	pushq	%r12
	.cfi_def_cfa_offset 32
	.cfi_offset 12, -32
	.loc 1 1566 20
	shrq	$3, %r13
	.loc 1 1505 5
	movl	%esi, %r12d
	pushq	%rbp
	.cfi_def_cfa_offset 40
	.cfi_offset 6, -40
	movq	%rdi, %rbp
	pushq	%rbx
	.cfi_def_cfa_offset 48
	.cfi_offset 3, -48
	subq	$16, %rsp
	.cfi_def_cfa_offset 64
	movl	num_connects(%rip), %eax
.LVL445:
.L673:
	.loc 1 1506 5 is_stmt 1
	.loc 1 1507 5
	.loc 1 1513 5
	.loc 1 1516 2
	.loc 1 1516 5 is_stmt 0
	cmpl	%eax, max_connects(%rip)
	jle	.L724
	.loc 1 1527 2 is_stmt 1
	.loc 1 1527 26 is_stmt 0
	movslq	first_free_connect(%rip), %rax
	.loc 1 1527 5
	cmpl	$-1, %eax
	je	.L652
	.loc 1 1527 43 discriminator 1
	leaq	(%rax,%rax,8), %rbx
	salq	$4, %rbx
	addq	connects(%rip), %rbx
	.loc 1 1527 63 discriminator 1
	movq	%rbx, %rax
	shrq	$3, %rax
	movzbl	2147450880(%rax), %eax
	testb	%al, %al
	je	.L653
	cmpb	$3, %al
	jle	.L725
.L653:
	.loc 1 1527 32 discriminator 1
	movl	(%rbx), %eax
	testl	%eax, %eax
	jne	.L652
	.loc 1 1532 2 is_stmt 1
.LVL446:
	.loc 1 1534 2
	.loc 1 1534 8 is_stmt 0
	leaq	8(%rbx), %r14
	movq	%r14, %rax
	shrq	$3, %rax
	cmpb	$0, 2147450880(%rax)
	jne	.L726
	movq	8(%rbx), %rdx
	.loc 1 1534 5
	testq	%rdx, %rdx
	je	.L727
.L656:
	.loc 1 1547 2 is_stmt 1
	.loc 1 1547 11 is_stmt 0
	movq	hs(%rip), %rdi
	movl	%r12d, %esi
	call	httpd_get_conn
.LVL447:
	testl	%eax, %eax
	je	.L659
	cmpl	$2, %eax
	je	.L675
	.loc 1 1560 2 is_stmt 1
	.loc 1 1560 16 is_stmt 0
	movq	%rbx, %rax
	shrq	$3, %rax
	movzbl	2147450880(%rax), %eax
	testb	%al, %al
	je	.L661
	cmpb	$3, %al
	jle	.L728
.L661:
	.loc 1 1562 24
	leaq	4(%rbx), %rdi
	.loc 1 1560 16
	movl	$1, (%rbx)
	.loc 1 1562 2 is_stmt 1
	.loc 1 1562 24 is_stmt 0
	movq	%rdi, %rax
	shrq	$3, %rax
	movzbl	2147450880(%rax), %edx
	movq	%rdi, %rax
	andl	$7, %eax
	addl	$3, %eax
	cmpb	%dl, %al
	jl	.L662
	testb	%dl, %dl
	jne	.L729
.L662:
	.loc 1 1562 21
	movl	4(%rbx), %eax
	.loc 1 1564 2
	addl	$1, num_connects(%rip)
	.loc 1 1566 20
	cmpb	$0, 2147450880(%r13)
	.loc 1 1563 23
	movl	$-1, 4(%rbx)
	.loc 1 1562 21
	movl	%eax, first_free_connect(%rip)
	.loc 1 1563 2 is_stmt 1
	.loc 1 1564 2
	.loc 1 1565 2
.LVL448:
	.loc 1 1566 2
	.loc 1 1566 20 is_stmt 0
	jne	.L730
	.loc 1 1566 15
	leaq	88(%rbx), %rdi
	.loc 1 1566 20
	movq	0(%rbp), %rax
	.loc 1 1566 15
	movq	%rdi, %rdx
	shrq	$3, %rdx
	cmpb	$0, 2147450880(%rdx)
	jne	.L731
	.loc 1 1567 18
	leaq	96(%rbx), %rdi
	.loc 1 1566 15
	movq	%rax, 88(%rbx)
	.loc 1 1567 2 is_stmt 1
	.loc 1 1567 18 is_stmt 0
	movq	%rdi, %rax
	shrq	$3, %rax
	cmpb	$0, 2147450880(%rax)
	jne	.L732
	.loc 1 1568 18
	leaq	104(%rbx), %rdi
	.loc 1 1567 18
	movq	$0, 96(%rbx)
	.loc 1 1568 2 is_stmt 1
	.loc 1 1568 18 is_stmt 0
	movq	%rdi, %rax
	shrq	$3, %rax
	cmpb	$0, 2147450880(%rax)
	jne	.L733
	.loc 1 1569 21
	leaq	136(%rbx), %rdi
	.loc 1 1568 18
	movq	$0, 104(%rbx)
	.loc 1 1569 2 is_stmt 1
	.loc 1 1569 21 is_stmt 0
	movq	%rdi, %rax
	shrq	$3, %rax
	cmpb	$0, 2147450880(%rax)
	jne	.L734
	movq	$0, 136(%rbx)
	.loc 1 1570 2 is_stmt 1
	.loc 1 1570 14 is_stmt 0
	leaq	56(%rbx), %rdi
	movq	%rdi, %rax
	shrq	$3, %rax
	movzbl	2147450880(%rax), %eax
	testb	%al, %al
	je	.L668
	cmpb	$3, %al
	jle	.L735
.L668:
	.loc 1 1573 21
	movq	%r14, %rax
	.loc 1 1570 14
	movl	$0, 56(%rbx)
	.loc 1 1573 2 is_stmt 1
	.loc 1 1573 21 is_stmt 0
	shrq	$3, %rax
	cmpb	$0, 2147450880(%rax)
	jne	.L736
	movq	8(%rbx), %rax
	.loc 1 1573 2
	leaq	704(%rax), %rdi
	movq	%rdi, %rdx
	shrq	$3, %rdx
	movzbl	2147450880(%rdx), %edx
	testb	%dl, %dl
	je	.L670
	cmpb	$3, %dl
	jle	.L737
.L670:
	movl	704(%rax), %edi
	call	httpd_set_ndelay
.LVL449:
	.loc 1 1575 2 is_stmt 1
	.loc 1 1575 19 is_stmt 0
	movq	%r14, %rax
	shrq	$3, %rax
	cmpb	$0, 2147450880(%rax)
	jne	.L738
	movq	8(%rbx), %rax
	.loc 1 1575 2
	leaq	704(%rax), %rdi
	movq	%rdi, %rdx
	shrq	$3, %rdx
	movzbl	2147450880(%rdx), %edx
	testb	%dl, %dl
	je	.L672
	cmpb	$3, %dl
	jle	.L739
.L672:
	movl	704(%rax), %edi
	xorl	%edx, %edx
	movq	%rbx, %rsi
	call	fdwatch_add_fd
.LVL450:
	.loc 1 1577 2 is_stmt 1
	addq	$1, stats_connections(%rip)
	.loc 1 1578 2
	.loc 1 1578 20 is_stmt 0
	movl	num_connects(%rip), %eax
	.loc 1 1578 5
	cmpl	stats_simultaneous(%rip), %eax
	jle	.L673
	.loc 1 1579 6 is_stmt 1
	.loc 1 1579 25 is_stmt 0
	movl	%eax, stats_simultaneous(%rip)
	jmp	.L673
.LVL451:
	.p2align 4,,10
	.p2align 3
.L675:
	.loc 1 1558 13
	movl	$1, %eax
.LVL452:
.L649:
	.loc 1 1581 5
	addq	$16, %rsp
	.cfi_remember_state
	.cfi_def_cfa_offset 48
	popq	%rbx
	.cfi_def_cfa_offset 40
	popq	%rbp
	.cfi_def_cfa_offset 32
.LVL453:
	popq	%r12
	.cfi_def_cfa_offset 24
.LVL454:
	popq	%r13
	.cfi_def_cfa_offset 16
	popq	%r14
	.cfi_def_cfa_offset 8
	ret
.LVL455:
	.p2align 4,,10
	.p2align 3
.L659:
	.cfi_restore_state
	.loc 1 1553 6
	movq	%rbp, %rdi
	movl	%eax, 12(%rsp)
	.loc 1 1553 6 is_stmt 1
	call	tmr_run
.LVL456:
	.loc 1 1554 6
	.loc 1 1554 13 is_stmt 0
	movl	12(%rsp), %eax
	.loc 1 1581 5
	addq	$16, %rsp
	.cfi_remember_state
	.cfi_def_cfa_offset 48
	popq	%rbx
	.cfi_def_cfa_offset 40
.LVL457:
	popq	%rbp
	.cfi_def_cfa_offset 32
.LVL458:
	popq	%r12
	.cfi_def_cfa_offset 24
.LVL459:
	popq	%r13
	.cfi_def_cfa_offset 16
	popq	%r14
	.cfi_def_cfa_offset 8
.LVL460:
	ret
.LVL461:
	.p2align 4,,10
	.p2align 3
.L727:
	.cfi_restore_state
	.loc 1 1536 6 is_stmt 1
	.loc 1 1536 14 is_stmt 0
	movl	$720, %edi
	call	malloc
.LVL462:
	movq	%rax, %rdx
	.loc 1 1536 12
	movq	%rax, 8(%rbx)
	.loc 1 1537 6 is_stmt 1
	.loc 1 1537 9 is_stmt 0
	testq	%rax, %rax
	je	.L740
	.loc 1 1542 6 is_stmt 1
	.loc 1 1542 25 is_stmt 0
	movq	%rax, %rcx
	shrq	$3, %rcx
	movzbl	2147450880(%rcx), %ecx
	testb	%cl, %cl
	je	.L658
	cmpb	$3, %cl
	jle	.L741
.L658:
	movl	$0, (%rax)
	.loc 1 1543 6 is_stmt 1
	addl	$1, httpd_conn_count(%rip)
	jmp	.L656
.L728:
	.loc 1 1560 16 is_stmt 0
	movq	%rbx, %rdi
	call	__asan_report_store4
.LVL463:
	.p2align 4,,10
	.p2align 3
.L724:
	.loc 1 1522 6 is_stmt 1
	xorl	%eax, %eax
	movl	$.LC87, %esi
	movl	$4, %edi
	call	syslog
.LVL464:
	.loc 1 1523 6
	movq	%rbp, %rdi
	call	tmr_run
.LVL465:
	.loc 1 1524 6
	.loc 1 1524 13 is_stmt 0
	xorl	%eax, %eax
	jmp	.L649
.L652:
	.loc 1 1529 6 is_stmt 1
	movl	$2, %edi
	movl	$.LC88, %esi
	xorl	%eax, %eax
	call	syslog
.LVL466:
	.loc 1 1530 6
	call	__asan_handle_no_return
.LVL467:
	movl	$1, %edi
	call	exit
.LVL468:
.L726:
	.loc 1 1534 8 is_stmt 0
	movq	%r14, %rdi
	call	__asan_report_load8
.LVL469:
.L725:
	.loc 1 1527 63
	movq	%rbx, %rdi
	call	__asan_report_load4
.LVL470:
.L729:
	.loc 1 1562 24
	call	__asan_report_load4
.LVL471:
.L738:
	.loc 1 1575 19
	movq	%r14, %rdi
	call	__asan_report_load8
.LVL472:
.L739:
	.loc 1 1575 2
	call	__asan_report_load4
.LVL473:
.L730:
	.loc 1 1566 20
	movq	%rbp, %rdi
	call	__asan_report_load8
.LVL474:
.L731:
	.loc 1 1566 15
	call	__asan_report_store8
.LVL475:
.L732:
	.loc 1 1567 18
	call	__asan_report_store8
.LVL476:
.L733:
	.loc 1 1568 18
	call	__asan_report_store8
.LVL477:
.L734:
	.loc 1 1569 21
	call	__asan_report_store8
.LVL478:
.L735:
	.loc 1 1570 14
	call	__asan_report_store4
.LVL479:
.L736:
	.loc 1 1573 21
	movq	%r14, %rdi
	call	__asan_report_load8
.LVL480:
.L737:
	.loc 1 1573 2
	call	__asan_report_load4
.LVL481:
.L741:
	.loc 1 1542 25
	movq	%rax, %rdi
	call	__asan_report_store4
.LVL482:
.L740:
	.loc 1 1539 3 is_stmt 1
	movl	$2, %edi
	movl	$.LC89, %esi
	call	syslog
.LVL483:
	.loc 1 1540 3
	call	__asan_handle_no_return
.LVL484:
	movl	$1, %edi
	call	exit
.LVL485:
	.cfi_endproc
.LFE19:
	.size	handle_newconnect, .-handle_newconnect
	.section	.rodata
	.align 32
.LC90:
	.string	"throttle sending count was negative - shouldn't happen!"
	.zero	40
	.text
	.p2align 4,,15
	.type	check_throttles, @function
check_throttles:
.LASANPC23:
.LFB23:
	.loc 1 1883 5
	.cfi_startproc
.LVL486:
	.loc 1 1884 5
	.loc 1 1885 5
	.loc 1 1887 5
	.loc 1 1883 5 is_stmt 0
	pushq	%r15
	.cfi_def_cfa_offset 16
	.cfi_offset 15, -16
	pushq	%r14
	.cfi_def_cfa_offset 24
	.cfi_offset 14, -24
	pushq	%r13
	.cfi_def_cfa_offset 32
	.cfi_offset 13, -32
	.loc 1 1887 17
	leaq	56(%rdi), %r13
	.loc 1 1883 5
	pushq	%r12
	.cfi_def_cfa_offset 40
	.cfi_offset 12, -40
	.loc 1 1887 17
	movq	%r13, %rax
	.loc 1 1883 5
	pushq	%rbp
	.cfi_def_cfa_offset 48
	.cfi_offset 6, -48
	.loc 1 1887 17
	shrq	$3, %rax
	.loc 1 1883 5
	pushq	%rbx
	.cfi_def_cfa_offset 56
	.cfi_offset 3, -56
	movq	%rdi, %rbx
	subq	$40, %rsp
	.cfi_def_cfa_offset 96
	.loc 1 1887 17
	movzbl	2147450880(%rax), %eax
	testb	%al, %al
	je	.L743
	cmpb	$3, %al
	jle	.L826
.L743:
	.loc 1 1888 33
	leaq	72(%rbx), %rax
	.loc 1 1887 17
	movl	$0, 56(%rbx)
	.loc 1 1888 5 is_stmt 1
	.loc 1 1888 33 is_stmt 0
	movq	%rax, 16(%rsp)
	shrq	$3, %rax
	cmpb	$0, 2147450880(%rax)
	jne	.L827
	.loc 1 1888 18
	leaq	64(%rbx), %rcx
	.loc 1 1888 33
	movq	$-1, %rax
	.loc 1 1888 18
	movq	%rcx, %rdx
	.loc 1 1888 33
	movq	%rax, 72(%rbx)
	.loc 1 1888 18
	shrq	$3, %rdx
	movq	%rcx, 8(%rsp)
	cmpb	$0, 2147450880(%rdx)
	jne	.L828
	movq	%rax, 64(%rbx)
	.loc 1 1889 5 is_stmt 1
.LVL487:
	leaq	8(%rbx), %rax
	xorl	%ebp, %ebp
	movq	%rax, 24(%rsp)
	.loc 1 1891 40 is_stmt 0
	shrq	$3, %rax
	movq	%rax, (%rsp)
	.loc 1 1889 5
	movl	numthrottles(%rip), %eax
	testl	%eax, %eax
	jg	.L746
	jmp	.L768
.LVL488:
	.p2align 4,,10
	.p2align 3
.L842:
	addl	$1, %r8d
	cqto
	movslq	%r8d, %rsi
	idivq	%rsi
.L757:
	.loc 1 1904 6 is_stmt 1
	.loc 1 1904 16 is_stmt 0
	movq	%r13, %rdx
	shrq	$3, %rdx
	movzbl	2147450880(%rdx), %edx
	testb	%dl, %dl
	je	.L761
	cmpb	$3, %dl
	jle	.L829
.L761:
	movslq	56(%rbx), %rsi
	.loc 1 1904 26
	leal	1(%rsi), %edx
	movl	%edx, 56(%rbx)
	.loc 1 1904 30
	leaq	16(%rbx,%rsi,4), %rdx
	movq	%rdx, %r9
	shrq	$3, %r9
	movzbl	2147450880(%r9), %r11d
	movq	%rdx, %r9
	andl	$7, %r9d
	addl	$3, %r9d
	cmpb	%r11b, %r9b
	jl	.L762
	testb	%r11b, %r11b
	jne	.L830
.L762:
	.loc 1 1905 6
	movq	%rdi, %rdx
	.loc 1 1904 30
	movl	%r14d, 16(%rbx,%rsi,4)
	.loc 1 1905 6 is_stmt 1
	shrq	$3, %rdx
	movzbl	2147450880(%rdx), %edx
	testb	%dl, %dl
	je	.L763
	cmpb	$3, %dl
	jle	.L831
.L763:
	.loc 1 1907 12 is_stmt 0
	movq	8(%rsp), %rdx
	.loc 1 1905 6
	movl	%r8d, 40(%rcx)
	.loc 1 1906 6 is_stmt 1
.LVL489:
	.loc 1 1907 6
	.loc 1 1907 12 is_stmt 0
	shrq	$3, %rdx
	cmpb	$0, 2147450880(%rdx)
	jne	.L832
	movq	64(%rbx), %rdx
	.loc 1 1907 9
	cmpq	$-1, %rdx
	je	.L765
	.loc 1 1910 3 is_stmt 1
	.loc 1 1910 18 is_stmt 0
	cmpq	%rdx, %rax
	cmovg	%rdx, %rax
.L765:
	movq	%rax, 64(%rbx)
	.loc 1 1911 6 is_stmt 1
.LVL490:
	.loc 1 1912 6
	.loc 1 1912 12 is_stmt 0
	movq	16(%rsp), %rax
	shrq	$3, %rax
	cmpb	$0, 2147450880(%rax)
	jne	.L833
	movq	72(%rbx), %rax
	.loc 1 1912 9
	cmpq	$-1, %rax
	je	.L825
	.loc 1 1915 3 is_stmt 1
	.loc 1 1915 18 is_stmt 0
	cmpq	%r10, %rax
	cmovge	%rax, %r10
.L825:
	.loc 1 1915 16
	movq	%r10, 72(%rbx)
.LVL491:
.L751:
	.loc 1 1889 5
	addl	$1, %r12d
	cmpl	%r12d, numthrottles(%rip)
	jle	.L768
	.loc 1 1889 45 discriminator 2
	movq	%r13, %rax
	shrq	$3, %rax
	movzbl	2147450880(%rax), %eax
	testb	%al, %al
	je	.L769
	cmpb	$3, %al
	jle	.L834
.L769:
	addq	$1, %rbp
.LVL492:
	.loc 1 1889 41 discriminator 2
	cmpl	$9, 56(%rbx)
	jg	.L768
.LVL493:
.L746:
	.loc 1 1891 40
	movq	(%rsp), %rax
	movl	%ebp, %r12d
	movl	%ebp, %r14d
.LVL494:
	.loc 1 1891 2 is_stmt 1
	.loc 1 1891 40 is_stmt 0
	cmpb	$0, 2147450880(%rax)
	jne	.L835
	movq	8(%rbx), %rax
	.loc 1 1891 44
	leaq	240(%rax), %rdi
	movq	%rdi, %rdx
	shrq	$3, %rdx
	cmpb	$0, 2147450880(%rdx)
	jne	.L836
	leaq	0(%rbp,%rbp,2), %r9
	.loc 1 1891 23
	movq	throttles(%rip), %rdi
	.loc 1 1891 44
	movq	240(%rax), %rsi
	movq	%r9, %r15
	salq	$4, %r15
	.loc 1 1891 23
	addq	%r15, %rdi
	.loc 1 1891 29
	movq	%rdi, %rax
	shrq	$3, %rax
	cmpb	$0, 2147450880(%rax)
	jne	.L837
	.loc 1 1891 7
	movq	(%rdi), %rdi
	call	match
.LVL495:
	.loc 1 1891 5
	testl	%eax, %eax
	je	.L751
	.loc 1 1894 6 is_stmt 1
	.loc 1 1894 20 is_stmt 0
	movq	throttles(%rip), %rcx
	addq	%r15, %rcx
	.loc 1 1894 26
	leaq	24(%rcx), %rdi
	movq	%rdi, %rax
	shrq	$3, %rax
	cmpb	$0, 2147450880(%rax)
	jne	.L838
	.loc 1 1894 49
	leaq	8(%rcx), %rdi
	.loc 1 1894 26
	movq	24(%rcx), %rdx
	.loc 1 1894 49
	movq	%rdi, %rax
	shrq	$3, %rax
	cmpb	$0, 2147450880(%rax)
	jne	.L839
	movq	8(%rcx), %rax
	.loc 1 1894 60
	leaq	(%rax,%rax), %rsi
	.loc 1 1894 9
	cmpq	%rsi, %rdx
	jg	.L772
	.loc 1 1897 6 is_stmt 1
	.loc 1 1897 49 is_stmt 0
	leaq	16(%rcx), %rdi
	movq	%rdi, %rsi
	shrq	$3, %rsi
	cmpb	$0, 2147450880(%rsi)
	jne	.L840
	movq	16(%rcx), %r10
	.loc 1 1897 9
	cmpq	%r10, %rdx
	jl	.L772
	.loc 1 1899 6 is_stmt 1
	.loc 1 1899 26 is_stmt 0
	leaq	40(%rcx), %rdi
	movq	%rdi, %rdx
	shrq	$3, %rdx
	movzbl	2147450880(%rdx), %edx
	testb	%dl, %dl
	je	.L755
	cmpb	$3, %dl
	jle	.L841
.L755:
	movl	40(%rcx), %r8d
	.loc 1 1899 9
	testl	%r8d, %r8d
	jns	.L842
	.loc 1 1901 3 is_stmt 1
	movl	$3, %edi
	xorl	%eax, %eax
	movl	$.LC90, %esi
	call	syslog
.LVL496:
	.loc 1 1902 3
	.loc 1 1902 12 is_stmt 0
	movq	throttles(%rip), %rcx
	addq	%r15, %rcx
	.loc 1 1902 31
	leaq	40(%rcx), %rdi
	movq	%rdi, %rax
	shrq	$3, %rax
	movzbl	2147450880(%rax), %eax
	testb	%al, %al
	je	.L758
	cmpb	$3, %al
	jle	.L843
.L758:
	leaq	8(%rcx), %rax
	movl	$0, 40(%rcx)
	movq	%rax, %rdx
	shrq	$3, %rdx
	cmpb	$0, 2147450880(%rdx)
	jne	.L844
	leaq	16(%rcx), %rdx
	movq	8(%rcx), %rax
	movq	%rdx, %rsi
	shrq	$3, %rsi
	cmpb	$0, 2147450880(%rsi)
	jne	.L845
	movq	16(%rcx), %r10
	movl	$1, %r8d
	jmp	.L757
.LVL497:
	.p2align 4,,10
	.p2align 3
.L768:
	.loc 1 1918 5
	addq	$40, %rsp
	.cfi_remember_state
	.cfi_def_cfa_offset 56
	.loc 1 1917 12
	movl	$1, %eax
	.loc 1 1918 5
	popq	%rbx
	.cfi_def_cfa_offset 48
.LVL498:
	popq	%rbp
	.cfi_def_cfa_offset 40
	popq	%r12
	.cfi_def_cfa_offset 32
	popq	%r13
	.cfi_def_cfa_offset 24
	popq	%r14
	.cfi_def_cfa_offset 16
	popq	%r15
	.cfi_def_cfa_offset 8
	ret
.LVL499:
	.p2align 4,,10
	.p2align 3
.L772:
	.cfi_restore_state
	addq	$40, %rsp
	.cfi_remember_state
	.cfi_def_cfa_offset 56
	.loc 1 1895 10
	xorl	%eax, %eax
	.loc 1 1918 5
	popq	%rbx
	.cfi_def_cfa_offset 48
.LVL500:
	popq	%rbp
	.cfi_def_cfa_offset 40
.LVL501:
	popq	%r12
	.cfi_def_cfa_offset 32
.LVL502:
	popq	%r13
	.cfi_def_cfa_offset 24
	popq	%r14
	.cfi_def_cfa_offset 16
.LVL503:
	popq	%r15
	.cfi_def_cfa_offset 8
	ret
.LVL504:
.L837:
	.cfi_restore_state
	.loc 1 1891 29
	call	__asan_report_load8
.LVL505:
.L836:
	.loc 1 1891 44
	call	__asan_report_load8
.LVL506:
.L835:
	.loc 1 1891 40
	movq	24(%rsp), %rdi
	call	__asan_report_load8
.LVL507:
.L834:
	.loc 1 1889 45
	movq	%r13, %rdi
	call	__asan_report_load4
.LVL508:
.L833:
	.loc 1 1912 12
	movq	16(%rsp), %rdi
	call	__asan_report_load8
.LVL509:
.L832:
	.loc 1 1907 12
	movq	8(%rsp), %rdi
	call	__asan_report_load8
.LVL510:
.L831:
	.loc 1 1905 6
	call	__asan_report_store4
.LVL511:
.L830:
	.loc 1 1904 30
	movq	%rdx, %rdi
	call	__asan_report_store4
.LVL512:
.L829:
	.loc 1 1904 16
	movq	%r13, %rdi
	call	__asan_report_load4
.LVL513:
.L841:
	.loc 1 1899 26
	call	__asan_report_load4
.LVL514:
.L840:
	.loc 1 1897 49
	call	__asan_report_load8
.LVL515:
.L839:
	.loc 1 1894 49
	call	__asan_report_load8
.LVL516:
.L838:
	.loc 1 1894 26
	call	__asan_report_load8
.LVL517:
.L845:
	movq	%rdx, %rdi
	call	__asan_report_load8
.LVL518:
.L844:
	movq	%rax, %rdi
	call	__asan_report_load8
.LVL519:
.L843:
	.loc 1 1902 31
	call	__asan_report_store4
.LVL520:
.L826:
	.loc 1 1887 17
	movq	%r13, %rdi
	call	__asan_report_store4
.LVL521:
.L828:
	.loc 1 1888 18
	movq	%rcx, %rdi
	call	__asan_report_store8
.LVL522:
.L827:
	.loc 1 1888 33
	movq	16(%rsp), %rdi
	call	__asan_report_store8
.LVL523:
	.cfi_endproc
.LFE23:
	.size	check_throttles, .-check_throttles
	.p2align 4,,15
	.type	shut_down, @function
shut_down:
.LASANPC18:
.LFB18:
	.loc 1 1467 5 is_stmt 1
	.cfi_startproc
	pushq	%r15
	.cfi_def_cfa_offset 16
	.cfi_offset 15, -16
	pushq	%r14
	.cfi_def_cfa_offset 24
	.cfi_offset 14, -24
	pushq	%r13
	.cfi_def_cfa_offset 32
	.cfi_offset 13, -32
	pushq	%r12
	.cfi_def_cfa_offset 40
	.cfi_offset 12, -40
	pushq	%rbp
	.cfi_def_cfa_offset 48
	.cfi_offset 6, -48
	pushq	%rbx
	.cfi_def_cfa_offset 56
	.cfi_offset 3, -56
	subq	$120, %rsp
	.cfi_def_cfa_offset 176
	movl	__asan_option_detect_stack_use_after_return(%rip), %edx
	leaq	16(%rsp), %rbp
	testl	%edx, %edx
	jne	.L903
.L846:
	.loc 1 1468 5
	.loc 1 1469 5
	.loc 1 1471 5
	.loc 1 1467 5 is_stmt 0
	movq	%rbp, %rax
	movq	$1102416563, 0(%rbp)
	.loc 1 1471 12
	xorl	%esi, %esi
	.loc 1 1473 5
	xorl	%r15d, %r15d
	.loc 1 1467 5
	shrq	$3, %rax
	movq	$.LC8, 8(%rbp)
	.loc 1 1471 12
	leaq	32(%rbp), %rbx
	.loc 1 1467 5
	movq	$.LASANPC18, 16(%rbp)
	.loc 1 1471 12
	movq	%rbx, %rdi
	.loc 1 1467 5
	movq	%rax, 8(%rsp)
	movl	$-235802127, 2147450880(%rax)
	movl	$-219021312, 2147450884(%rax)
	movl	$-202116109, 2147450888(%rax)
	.loc 1 1471 12
	call	gettimeofday
.LVL524:
	.loc 1 1472 5 is_stmt 1
	movq	%rbx, %rdi
	.loc 1 1473 16 is_stmt 0
	xorl	%ebx, %ebx
	.loc 1 1472 5
	call	logstats
.LVL525:
	.loc 1 1473 5 is_stmt 1
	.loc 1 1476 6 is_stmt 0
	leaq	32(%rbp), %rax
	movq	%rax, (%rsp)
	.loc 1 1473 5
	movl	max_connects(%rip), %eax
	testl	%eax, %eax
	jg	.L850
	jmp	.L860
.LVL526:
	.p2align 4,,10
	.p2align 3
.L855:
	.loc 1 1477 2 is_stmt 1
	.loc 1 1477 5 is_stmt 0
	testq	%rdi, %rdi
	je	.L857
	.loc 1 1479 6 is_stmt 1
	call	httpd_destroy_conn
.LVL527:
	.loc 1 1480 6
	.loc 1 1480 28 is_stmt 0
	movq	connects(%rip), %r13
	addq	%r15, %r13
	.loc 1 1480 34
	leaq	8(%r13), %r14
	movq	%r14, %r12
	shrq	$3, %r12
	cmpb	$0, 2147450880(%r12)
	jne	.L904
	.loc 1 1480 6
	movq	8(%r13), %rdi
	call	free
.LVL528:
	.loc 1 1481 6 is_stmt 1
	subl	$1, httpd_conn_count(%rip)
	.loc 1 1482 6
	.loc 1 1482 24 is_stmt 0
	cmpb	$0, 2147450880(%r12)
	jne	.L905
	movq	$0, 8(%r13)
.L857:
	.loc 1 1473 42 discriminator 2
	addl	$1, %ebx
.LVL529:
	addq	$144, %r15
	.loc 1 1473 5 discriminator 2
	cmpl	%ebx, max_connects(%rip)
	jle	.L860
.LVL530:
.L850:
	.loc 1 1475 2 is_stmt 1
	.loc 1 1475 15 is_stmt 0
	movq	connects(%rip), %rdi
	addq	%r15, %rdi
	.loc 1 1475 21
	movq	%rdi, %rax
	shrq	$3, %rax
	movzbl	2147450880(%rax), %eax
	testb	%al, %al
	je	.L853
	cmpb	$3, %al
	jle	.L906
.L853:
	leaq	8(%rdi), %rax
	movl	(%rdi), %edx
	movq	%rax, %rcx
	shrq	$3, %rcx
	cmpb	$0, 2147450880(%rcx)
	jne	.L907
	movq	8(%rdi), %rdi
	.loc 1 1475 5
	testl	%edx, %edx
	je	.L855
	.loc 1 1476 6 is_stmt 1
	movq	(%rsp), %rsi
	call	httpd_close_conn
.LVL531:
	movq	connects(%rip), %rax
	addq	%r15, %rax
	leaq	8(%rax), %rdi
	movq	%rdi, %rdx
	shrq	$3, %rdx
	cmpb	$0, 2147450880(%rdx)
	jne	.L908
	movq	8(%rax), %rdi
	jmp	.L855
.LVL532:
	.p2align 4,,10
	.p2align 3
.L860:
	.loc 1 1485 5
	.loc 1 1485 13 is_stmt 0
	movq	hs(%rip), %rbx
	.loc 1 1485 8
	testq	%rbx, %rbx
	je	.L852
.LBB2:
	.loc 1 1487 2 is_stmt 1
.LVL533:
	.loc 1 1488 2
	.loc 1 1488 5 is_stmt 0
	movq	$0, hs(%rip)
	.loc 1 1489 2 is_stmt 1
	.loc 1 1489 10 is_stmt 0
	leaq	72(%rbx), %rdi
	movq	%rdi, %rax
	shrq	$3, %rax
	movzbl	2147450880(%rax), %eax
	testb	%al, %al
	je	.L861
	cmpb	$3, %al
	jle	.L909
.L861:
	movl	72(%rbx), %edi
	.loc 1 1489 5
	cmpl	$-1, %edi
	jne	.L910
.L862:
	.loc 1 1491 2 is_stmt 1
	.loc 1 1491 10 is_stmt 0
	leaq	76(%rbx), %rdi
	movq	%rdi, %rax
	shrq	$3, %rax
	movzbl	2147450880(%rax), %edx
	movq	%rdi, %rax
	andl	$7, %eax
	addl	$3, %eax
	cmpb	%dl, %al
	jl	.L863
	testb	%dl, %dl
	jne	.L911
.L863:
	movl	76(%rbx), %edi
	.loc 1 1491 5
	cmpl	$-1, %edi
	jne	.L912
.L864:
	.loc 1 1493 2 is_stmt 1
	movq	%rbx, %rdi
	call	httpd_terminate
.LVL534:
.L852:
.LBE2:
	.loc 1 1495 5
	call	mmc_destroy
.LVL535:
	.loc 1 1496 5
	call	tmr_destroy
.LVL536:
	.loc 1 1497 5
	movq	connects(%rip), %rdi
	call	free
.LVL537:
	.loc 1 1498 5
	.loc 1 1498 20 is_stmt 0
	movq	throttles(%rip), %rdi
	.loc 1 1498 8
	testq	%rdi, %rdi
	je	.L849
	.loc 1 1499 2 is_stmt 1
	call	free
.LVL538:
.L849:
	.loc 1 1467 5 is_stmt 0
	leaq	16(%rsp), %rax
	cmpq	%rbp, %rax
	jne	.L913
	movq	8(%rsp), %rax
	movq	$0, 2147450880(%rax)
	movl	$0, 2147450888(%rax)
.L848:
	.loc 1 1500 5
	addq	$120, %rsp
	.cfi_remember_state
	.cfi_def_cfa_offset 56
	popq	%rbx
	.cfi_def_cfa_offset 48
	popq	%rbp
	.cfi_def_cfa_offset 40
	popq	%r12
	.cfi_def_cfa_offset 32
	popq	%r13
	.cfi_def_cfa_offset 24
	popq	%r14
	.cfi_def_cfa_offset 16
	popq	%r15
	.cfi_def_cfa_offset 8
	ret
.LVL539:
	.p2align 4,,10
	.p2align 3
.L910:
	.cfi_restore_state
.LBB3:
	.loc 1 1490 6 is_stmt 1
	call	fdwatch_del_fd
.LVL540:
	jmp	.L862
	.p2align 4,,10
	.p2align 3
.L912:
	.loc 1 1492 6
	call	fdwatch_del_fd
.LVL541:
	jmp	.L864
.LVL542:
.L906:
.LBE3:
	.loc 1 1475 21 is_stmt 0
	call	__asan_report_load4
.LVL543:
.L907:
	movq	%rax, %rdi
	call	__asan_report_load8
.LVL544:
.L904:
	.loc 1 1480 34
	movq	%r14, %rdi
	call	__asan_report_load8
.LVL545:
.L905:
	.loc 1 1482 24
	movq	%r14, %rdi
	call	__asan_report_store8
.LVL546:
.L908:
	call	__asan_report_load8
.LVL547:
.L913:
	.loc 1 1467 5
	movq	$1172321806, 0(%rbp)
	movq	8(%rsp), %rax
	movabsq	$-723401728380766731, %rsi
	movq	%rsi, 2147450880(%rax)
	movl	$-168430091, 2147450888(%rax)
	jmp	.L848
.L903:
	movl	$96, %edi
	call	__asan_stack_malloc_1
.LVL548:
	testq	%rax, %rax
	cmovne	%rax, %rbp
	jmp	.L846
.LVL549:
.L911:
.LBB4:
	.loc 1 1491 10
	call	__asan_report_load4
.LVL550:
.L909:
	.loc 1 1489 10
	call	__asan_report_load4
.LVL551:
.LBE4:
	.cfi_endproc
.LFE18:
	.size	shut_down, .-shut_down
	.section	.rodata
	.align 32
.LC91:
	.string	"exiting"
	.zero	56
	.text
	.p2align 4,,15
	.type	handle_usr1, @function
handle_usr1:
.LASANPC5:
.LFB5:
	.loc 1 257 5 is_stmt 1
	.cfi_startproc
.LVL552:
	.loc 1 260 5
	.loc 1 260 8 is_stmt 0
	movl	num_connects(%rip), %eax
	testl	%eax, %eax
	je	.L919
	.loc 1 273 5 is_stmt 1
	.loc 1 273 14 is_stmt 0
	movl	$1, got_usr1(%rip)
	ret
	.p2align 4,,10
	.p2align 3
.L919:
	.loc 1 266 2 is_stmt 1
	.loc 1 257 5 is_stmt 0
	subq	$8, %rsp
	.cfi_def_cfa_offset 16
	.loc 1 266 2
	call	shut_down
.LVL553:
	.loc 1 267 2 is_stmt 1
	movl	$5, %edi
	movl	$.LC91, %esi
	xorl	%eax, %eax
	call	syslog
.LVL554:
	.loc 1 268 2
	call	closelog
.LVL555:
	.loc 1 269 2
	call	__asan_handle_no_return
.LVL556:
	xorl	%edi, %edi
	call	exit
.LVL557:
	.cfi_endproc
.LFE5:
	.size	handle_usr1, .-handle_usr1
	.section	.rodata
	.align 32
.LC92:
	.string	"exiting due to signal %d"
	.zero	39
	.text
	.p2align 4,,15
	.type	handle_term, @function
handle_term:
.LASANPC2:
.LFB2:
	.loc 1 172 5
	.cfi_startproc
.LVL558:
	.loc 1 175 5
	.loc 1 172 5 is_stmt 0
	pushq	%rbx
	.cfi_def_cfa_offset 16
	.cfi_offset 3, -16
	.loc 1 172 5
	movl	%edi, %ebx
	.loc 1 175 5
	call	shut_down
.LVL559:
	.loc 1 176 5 is_stmt 1
	movl	$5, %edi
	movl	%ebx, %edx
	xorl	%eax, %eax
	movl	$.LC92, %esi
	call	syslog
.LVL560:
	.loc 1 177 5
	call	closelog
.LVL561:
	.loc 1 178 5
	call	__asan_handle_no_return
.LVL562:
	movl	$1, %edi
	call	exit
.LVL563:
	.cfi_endproc
.LFE2:
	.size	handle_term, .-handle_term
	.p2align 4,,15
	.type	clear_throttles.isra.0, @function
clear_throttles.isra.0:
.LASANPC36:
.LFB36:
	.loc 1 1922 1
	.cfi_startproc
.LVL564:
	.loc 1 1926 29 is_stmt 0
	leaq	56(%rdi), %rdx
	.loc 1 1922 1
	subq	$8, %rsp
	.cfi_def_cfa_offset 16
	.loc 1 1926 29
	movq	%rdx, %rax
	shrq	$3, %rax
	movzbl	2147450880(%rax), %eax
	testb	%al, %al
	je	.L923
	cmpb	$3, %al
	jle	.L948
.L923:
	movl	56(%rdi), %eax
	.loc 1 1926 5
	testl	%eax, %eax
	jle	.L922
	subl	$1, %eax
	.loc 1 1927 13
	movq	throttles(%rip), %r8
	leaq	16(%rdi), %rdx
	leaq	20(%rdi,%rax,4), %rsi
.LVL565:
	.p2align 4,,10
	.p2align 3
.L927:
	.loc 1 1927 2 is_stmt 1
	.loc 1 1927 22 is_stmt 0
	movq	%rdx, %rax
	shrq	$3, %rax
	movzbl	2147450880(%rax), %ecx
	movq	%rdx, %rax
	andl	$7, %eax
	addl	$3, %eax
	cmpb	%cl, %al
	jl	.L925
	testb	%cl, %cl
	jne	.L949
.L925:
	movslq	(%rdx), %rax
	.loc 1 1927 13
	leaq	(%rax,%rax,2), %rax
	salq	$4, %rax
	addq	%r8, %rax
	.loc 1 1927 29
	leaq	40(%rax), %rdi
	movq	%rdi, %rcx
	shrq	$3, %rcx
	movzbl	2147450880(%rcx), %ecx
	testb	%cl, %cl
	je	.L926
	cmpb	$3, %cl
	jle	.L950
.L926:
	addq	$4, %rdx
	.loc 1 1927 2
	subl	$1, 40(%rax)
	.loc 1 1926 5
	cmpq	%rsi, %rdx
	jne	.L927
.L922:
	.loc 1 1928 5
	addq	$8, %rsp
	.cfi_remember_state
	.cfi_def_cfa_offset 8
	ret
.LVL566:
.L948:
	.cfi_restore_state
	.loc 1 1926 29
	movq	%rdx, %rdi
.LVL567:
	call	__asan_report_load4
.LVL568:
.L950:
	.loc 1 1927 29
	call	__asan_report_load4
.LVL569:
.L949:
	.loc 1 1927 22
	movq	%rdx, %rdi
	call	__asan_report_load4
.LVL570:
	.cfi_endproc
.LFE36:
	.size	clear_throttles.isra.0, .-clear_throttles.isra.0
	.p2align 4,,15
	.type	really_clear_connection, @function
really_clear_connection:
.LASANPC28:
.LFB28:
	.loc 1 2048 5 is_stmt 1
	.cfi_startproc
.LVL571:
	.loc 1 2049 5
	.loc 1 2048 5 is_stmt 0
	pushq	%r12
	.cfi_def_cfa_offset 16
	.cfi_offset 12, -16
	pushq	%rbp
	.cfi_def_cfa_offset 24
	.cfi_offset 6, -24
	.loc 1 2049 21
	leaq	8(%rdi), %rbp
	.loc 1 2048 5
	pushq	%rbx
	.cfi_def_cfa_offset 32
	.cfi_offset 3, -32
	.loc 1 2049 21
	movq	%rbp, %rax
	shrq	$3, %rax
	.loc 1 2048 5
	subq	$16, %rsp
	.cfi_def_cfa_offset 48
	.loc 1 2049 21
	cmpb	$0, 2147450880(%rax)
	jne	.L991
	movq	%rdi, %rbx
	movq	8(%rdi), %rdi
.LVL572:
	.loc 1 2049 25
	leaq	200(%rdi), %rax
	movq	%rax, %rdx
	shrq	$3, %rdx
	cmpb	$0, 2147450880(%rdx)
	jne	.L992
	.loc 1 2049 17
	movq	200(%rdi), %rax
	addq	%rax, stats_bytes(%rip)
	.loc 1 2050 5 is_stmt 1
	.loc 1 2050 11 is_stmt 0
	movq	%rbx, %rax
	shrq	$3, %rax
	movzbl	2147450880(%rax), %eax
	testb	%al, %al
	je	.L954
	cmpb	$3, %al
	jle	.L993
.L954:
	.loc 1 2050 8
	cmpl	$3, (%rbx)
	jne	.L994
.LVL573:
.L955:
	.loc 1 2052 5 is_stmt 1
	call	httpd_close_conn
.LVL574:
	.loc 1 2053 5
	.loc 1 2054 11 is_stmt 0
	leaq	104(%rbx), %r12
	.loc 1 2053 5
	movq	%rbx, %rdi
	call	clear_throttles.isra.0
.LVL575:
	.loc 1 2054 5 is_stmt 1
	.loc 1 2054 11 is_stmt 0
	movq	%r12, %rbp
	shrq	$3, %rbp
	cmpb	$0, 2147450880(%rbp)
	jne	.L995
	movq	104(%rbx), %rdi
	.loc 1 2054 8
	testq	%rdi, %rdi
	je	.L959
	.loc 1 2056 2 is_stmt 1
	call	tmr_cancel
.LVL576:
	.loc 1 2057 2
	.loc 1 2057 18 is_stmt 0
	cmpb	$0, 2147450880(%rbp)
	jne	.L996
	movq	$0, 104(%rbx)
.L959:
	.loc 1 2059 5 is_stmt 1
	.loc 1 2059 19 is_stmt 0
	movq	%rbx, %rax
	shrq	$3, %rax
	movzbl	2147450880(%rax), %eax
	testb	%al, %al
	je	.L961
	cmpb	$3, %al
	jle	.L997
.L961:
	.loc 1 2060 26
	leaq	4(%rbx), %rdi
	.loc 1 2059 19
	movl	$0, (%rbx)
	.loc 1 2060 5 is_stmt 1
	.loc 1 2060 26 is_stmt 0
	movl	first_free_connect(%rip), %ecx
	movq	%rdi, %rax
	shrq	$3, %rax
	movzbl	2147450880(%rax), %edx
	movq	%rdi, %rax
	andl	$7, %eax
	addl	$3, %eax
	cmpb	%dl, %al
	jl	.L962
	testb	%dl, %dl
	jne	.L998
.L962:
	.loc 1 2061 28
	movabsq	$-8198552921648689607, %rax
	.loc 1 2060 26
	movl	%ecx, 4(%rbx)
	.loc 1 2061 5 is_stmt 1
	.loc 1 2061 28 is_stmt 0
	subq	connects(%rip), %rbx
.LVL577:
	sarq	$4, %rbx
	.loc 1 2062 5
	subl	$1, num_connects(%rip)
	.loc 1 2061 28
	imulq	%rax, %rbx
	.loc 1 2061 24
	movl	%ebx, first_free_connect(%rip)
	.loc 1 2062 5 is_stmt 1
	.loc 1 2063 5 is_stmt 0
	addq	$16, %rsp
	.cfi_remember_state
	.cfi_def_cfa_offset 32
	popq	%rbx
	.cfi_def_cfa_offset 24
	popq	%rbp
	.cfi_def_cfa_offset 16
	popq	%r12
	.cfi_def_cfa_offset 8
.LVL578:
	ret
.LVL579:
	.p2align 4,,10
	.p2align 3
.L994:
	.cfi_restore_state
	.loc 1 2051 2 is_stmt 1
	leaq	704(%rdi), %rdx
	movq	%rdx, %rax
	shrq	$3, %rax
	movzbl	2147450880(%rax), %eax
	testb	%al, %al
	je	.L956
	cmpb	$3, %al
	jle	.L999
.L956:
	movl	704(%rdi), %edi
	movq	%rsi, 8(%rsp)
	call	fdwatch_del_fd
.LVL580:
	movq	%rbp, %rax
	movq	8(%rsp), %rsi
	shrq	$3, %rax
	cmpb	$0, 2147450880(%rax)
	jne	.L1000
	movq	8(%rbx), %rdi
	jmp	.L955
.LVL581:
.L998:
	.loc 1 2060 26 is_stmt 0
	call	__asan_report_store4
.LVL582:
.L997:
	.loc 1 2059 19
	movq	%rbx, %rdi
	call	__asan_report_store4
.LVL583:
.L993:
	.loc 1 2050 11
	movq	%rbx, %rdi
	call	__asan_report_load4
.LVL584:
.L992:
	.loc 1 2049 25
	movq	%rax, %rdi
	call	__asan_report_load8
.LVL585:
.L991:
	.loc 1 2049 21
	movq	%rbp, %rdi
.LVL586:
	call	__asan_report_load8
.LVL587:
.L995:
	.loc 1 2054 11
	movq	%r12, %rdi
	call	__asan_report_load8
.LVL588:
.L996:
	.loc 1 2057 18
	movq	%r12, %rdi
	call	__asan_report_store8
.LVL589:
.L999:
	.loc 1 2051 2
	movq	%rdx, %rdi
	call	__asan_report_load4
.LVL590:
.L1000:
	movq	%rbp, %rdi
	call	__asan_report_load8
.LVL591:
	.cfi_endproc
.LFE28:
	.size	really_clear_connection, .-really_clear_connection
	.section	.rodata
	.align 32
.LC93:
	.string	"replacing non-null linger_timer!"
	.zero	63
	.align 32
.LC94:
	.string	"tmr_create(linger_clear_connection) failed"
	.zero	53
	.text
	.p2align 4,,15
	.type	clear_connection, @function
clear_connection:
.LASANPC27:
.LFB27:
	.loc 1 1996 5 is_stmt 1
	.cfi_startproc
.LVL592:
	.loc 1 1997 5
	.loc 1 1999 5
	.loc 1 1996 5 is_stmt 0
	pushq	%r13
	.cfi_def_cfa_offset 16
	.cfi_offset 13, -16
	.loc 1 1999 11
	leaq	96(%rdi), %r13
	.loc 1 1996 5
	pushq	%r12
	.cfi_def_cfa_offset 24
	.cfi_offset 12, -24
	.loc 1 1999 11
	movq	%r13, %r12
	.loc 1 1996 5
	pushq	%rbp
	.cfi_def_cfa_offset 32
	.cfi_offset 6, -32
	.loc 1 1999 11
	shrq	$3, %r12
	.loc 1 1996 5
	pushq	%rbx
	.cfi_def_cfa_offset 40
	.cfi_offset 3, -40
	subq	$8, %rsp
	.cfi_def_cfa_offset 48
	.loc 1 1999 11
	cmpb	$0, 2147450880(%r12)
	jne	.L1074
	movq	%rdi, %rbx
	movq	96(%rdi), %rdi
.LVL593:
	movq	%rsi, %rbp
	.loc 1 1999 8
	testq	%rdi, %rdi
	je	.L1003
	.loc 1 2001 2 is_stmt 1
	call	tmr_cancel
.LVL594:
	.loc 1 2002 2
	.loc 1 2002 18 is_stmt 0
	cmpb	$0, 2147450880(%r12)
	jne	.L1075
	movq	$0, 96(%rbx)
.L1003:
	.loc 1 2016 5 is_stmt 1
	.loc 1 2016 11 is_stmt 0
	movq	%rbx, %rax
	shrq	$3, %rax
	movzbl	2147450880(%rax), %eax
	testb	%al, %al
	je	.L1005
	cmpb	$3, %al
	jle	.L1076
.L1005:
	movl	(%rbx), %ecx
	.loc 1 2016 8
	cmpl	$4, %ecx
	je	.L1077
	.loc 1 2023 5 is_stmt 1
	.loc 1 2023 11 is_stmt 0
	leaq	8(%rbx), %r12
	movq	%r12, %rax
	shrq	$3, %rax
	cmpb	$0, 2147450880(%rax)
	jne	.L1078
	movq	8(%rbx), %rax
	.loc 1 2023 15
	leaq	556(%rax), %rdi
	movq	%rdi, %rdx
	shrq	$3, %rdx
	movzbl	2147450880(%rdx), %esi
	movq	%rdi, %rdx
	andl	$7, %edx
	addl	$3, %edx
	cmpb	%sil, %dl
	jl	.L1013
	testb	%sil, %sil
	jne	.L1079
.L1013:
	.loc 1 2023 8
	movl	556(%rax), %edx
	testl	%edx, %edx
	je	.L1011
	.loc 1 2025 2 is_stmt 1
	leaq	704(%rax), %rdi
	movq	%rdi, %rdx
	shrq	$3, %rdx
	movzbl	2147450880(%rdx), %edx
	testb	%dl, %dl
	je	.L1014
	cmpb	$3, %dl
	jle	.L1080
.L1014:
	movl	704(%rax), %edi
	.loc 1 2025 5 is_stmt 0
	cmpl	$3, %ecx
	jne	.L1081
.L1015:
	.loc 1 2027 2 is_stmt 1
	.loc 1 2027 16 is_stmt 0
	movq	%rbx, %rax
	shrq	$3, %rax
	movzbl	2147450880(%rax), %eax
	testb	%al, %al
	je	.L1018
	cmpb	$3, %al
	jle	.L1082
.L1018:
	movl	$4, (%rbx)
	.loc 1 2028 2 is_stmt 1
	movl	$1, %esi
	call	shutdown
.LVL595:
	.loc 1 2029 2
	.loc 1 2029 19 is_stmt 0
	movq	%r12, %rax
	shrq	$3, %rax
	cmpb	$0, 2147450880(%rax)
	jne	.L1083
	movq	8(%rbx), %rax
	.loc 1 2029 2
	leaq	704(%rax), %rdi
	movq	%rdi, %rdx
	shrq	$3, %rdx
	movzbl	2147450880(%rdx), %edx
	testb	%dl, %dl
	je	.L1020
	cmpb	$3, %dl
	jle	.L1084
.L1020:
	movl	704(%rax), %edi
	xorl	%edx, %edx
	movq	%rbx, %rsi
	.loc 1 2031 8
	leaq	104(%rbx), %r12
	.loc 1 2029 2
	call	fdwatch_add_fd
.LVL596:
	.loc 1 2030 2 is_stmt 1
	.loc 1 2031 2
	.loc 1 2031 8 is_stmt 0
	movq	%r12, %rax
	shrq	$3, %rax
	cmpb	$0, 2147450880(%rax)
	jne	.L1085
	.loc 1 2031 5
	cmpq	$0, 104(%rbx)
	je	.L1022
	.loc 1 2032 6 is_stmt 1
	movl	$.LC93, %esi
	movl	$3, %edi
	xorl	%eax, %eax
	call	syslog
.LVL597:
.L1022:
	.loc 1 2033 2
	.loc 1 2033 20 is_stmt 0
	xorl	%r8d, %r8d
	movq	%rbx, %rdx
	movl	$500, %ecx
	movl	$linger_clear_connection, %esi
	movq	%rbp, %rdi
	call	tmr_create
.LVL598:
	.loc 1 2033 18
	movq	%r12, %rdx
	shrq	$3, %rdx
	cmpb	$0, 2147450880(%rdx)
	jne	.L1086
	movq	%rax, 104(%rbx)
	.loc 1 2035 2 is_stmt 1
	.loc 1 2035 5 is_stmt 0
	testq	%rax, %rax
	je	.L1087
	.loc 1 2043 5
	addq	$8, %rsp
	.cfi_remember_state
	.cfi_def_cfa_offset 40
	popq	%rbx
	.cfi_def_cfa_offset 32
.LVL599:
	popq	%rbp
	.cfi_def_cfa_offset 24
.LVL600:
	popq	%r12
	.cfi_def_cfa_offset 16
.LVL601:
	popq	%r13
	.cfi_def_cfa_offset 8
.LVL602:
	ret
.LVL603:
	.p2align 4,,10
	.p2align 3
.L1081:
	.cfi_restore_state
	.loc 1 2026 6 is_stmt 1
	call	fdwatch_del_fd
.LVL604:
	movq	%r12, %rax
	shrq	$3, %rax
	cmpb	$0, 2147450880(%rax)
	jne	.L1088
	movq	8(%rbx), %rax
	leaq	704(%rax), %rdi
	movq	%rdi, %rdx
	shrq	$3, %rdx
	movzbl	2147450880(%rdx), %edx
	testb	%dl, %dl
	je	.L1017
	cmpb	$3, %dl
	jle	.L1089
.L1017:
	movl	704(%rax), %edi
	jmp	.L1015
	.p2align 4,,10
	.p2align 3
.L1077:
	.loc 1 2019 2
	leaq	104(%rbx), %r13
	movq	%r13, %r12
	shrq	$3, %r12
	cmpb	$0, 2147450880(%r12)
	jne	.L1090
	movq	104(%rbx), %rdi
	call	tmr_cancel
.LVL605:
	.loc 1 2020 2
	.loc 1 2020 18 is_stmt 0
	cmpb	$0, 2147450880(%r12)
	jne	.L1091
	.loc 1 2021 3
	leaq	8(%rbx), %rdi
	.loc 1 2020 18
	movq	$0, 104(%rbx)
	.loc 1 2021 2 is_stmt 1
	.loc 1 2021 3 is_stmt 0
	movq	%rdi, %rax
	shrq	$3, %rax
	cmpb	$0, 2147450880(%rax)
	jne	.L1092
	movq	8(%rbx), %rdx
	.loc 1 2021 23
	leaq	556(%rdx), %rdi
	movq	%rdi, %rax
	shrq	$3, %rax
	movzbl	2147450880(%rax), %ecx
	movq	%rdi, %rax
	andl	$7, %eax
	addl	$3, %eax
	cmpb	%cl, %al
	jl	.L1010
	testb	%cl, %cl
	jne	.L1093
.L1010:
	movl	$0, 556(%rdx)
	.loc 1 2023 5 is_stmt 1
.L1011:
	.loc 1 2042 2
	.loc 1 2043 5 is_stmt 0
	addq	$8, %rsp
	.cfi_remember_state
	.cfi_def_cfa_offset 40
	.loc 1 2042 2
	movq	%rbp, %rsi
	movq	%rbx, %rdi
	.loc 1 2043 5
	popq	%rbx
	.cfi_def_cfa_offset 32
.LVL606:
	popq	%rbp
	.cfi_def_cfa_offset 24
.LVL607:
	popq	%r12
	.cfi_def_cfa_offset 16
	popq	%r13
	.cfi_def_cfa_offset 8
	.loc 1 2042 2
	jmp	really_clear_connection
.LVL608:
.L1076:
	.cfi_restore_state
	.loc 1 2016 11
	movq	%rbx, %rdi
	call	__asan_report_load4
.LVL609:
.L1079:
	.loc 1 2023 15
	call	__asan_report_load4
.LVL610:
.L1084:
	.loc 1 2029 2
	call	__asan_report_load4
.LVL611:
.L1082:
	.loc 1 2027 16
	movq	%rbx, %rdi
	call	__asan_report_store4
.LVL612:
.L1080:
	call	__asan_report_load4
.LVL613:
.L1089:
	call	__asan_report_load4
.LVL614:
.L1093:
	.loc 1 2021 23
	call	__asan_report_store4
.LVL615:
.L1074:
	.loc 1 1999 11
	movq	%r13, %rdi
.LVL616:
	call	__asan_report_load8
.LVL617:
.L1078:
	.loc 1 2023 11
	movq	%r12, %rdi
	call	__asan_report_load8
.LVL618:
.L1086:
	.loc 1 2033 18
	movq	%r12, %rdi
	call	__asan_report_store8
.LVL619:
.L1085:
	.loc 1 2031 8
	movq	%r12, %rdi
	call	__asan_report_load8
.LVL620:
.L1083:
	.loc 1 2029 19
	movq	%r12, %rdi
	call	__asan_report_load8
.LVL621:
.L1075:
	.loc 1 2002 18
	movq	%r13, %rdi
	call	__asan_report_store8
.LVL622:
.L1087:
	.loc 1 2037 6 is_stmt 1
	movl	$2, %edi
	movl	$.LC94, %esi
	call	syslog
.LVL623:
	.loc 1 2038 6
	call	__asan_handle_no_return
.LVL624:
	movl	$1, %edi
	call	exit
.LVL625:
.L1088:
	movq	%r12, %rdi
	call	__asan_report_load8
.LVL626:
.L1091:
	.loc 1 2020 18 is_stmt 0
	movq	%r13, %rdi
	call	__asan_report_store8
.LVL627:
.L1092:
	.loc 1 2021 3
	call	__asan_report_load8
.LVL628:
.L1090:
	.loc 1 2019 2
	movq	%r13, %rdi
	call	__asan_report_load8
.LVL629:
	.cfi_endproc
.LFE27:
	.size	clear_connection, .-clear_connection
	.p2align 4,,15
	.type	finish_connection, @function
finish_connection:
.LASANPC26:
.LFB26:
	.loc 1 1985 5 is_stmt 1
	.cfi_startproc
.LVL630:
	.loc 1 1987 5
	.loc 1 1985 5 is_stmt 0
	pushq	%rbp
	.cfi_def_cfa_offset 16
	.cfi_offset 6, -16
	pushq	%rbx
	.cfi_def_cfa_offset 24
	.cfi_offset 3, -24
	movq	%rdi, %rbx
	.loc 1 1987 5
	addq	$8, %rdi
.LVL631:
	movq	%rdi, %rax
	shrq	$3, %rax
	.loc 1 1985 5
	subq	$8, %rsp
	.cfi_def_cfa_offset 32
	.loc 1 1987 5
	cmpb	$0, 2147450880(%rax)
	jne	.L1097
	movq	8(%rbx), %rdi
	movq	%rsi, %rbp
	call	httpd_write_response
.LVL632:
	.loc 1 1990 5 is_stmt 1
	.loc 1 1991 5 is_stmt 0
	addq	$8, %rsp
	.cfi_remember_state
	.cfi_def_cfa_offset 24
	.loc 1 1990 5
	movq	%rbp, %rsi
	movq	%rbx, %rdi
	.loc 1 1991 5
	popq	%rbx
	.cfi_def_cfa_offset 16
.LVL633:
	popq	%rbp
	.cfi_def_cfa_offset 8
.LVL634:
	.loc 1 1990 5
	jmp	clear_connection
.LVL635:
.L1097:
	.cfi_restore_state
	.loc 1 1987 5
	call	__asan_report_load8
.LVL636:
	.cfi_endproc
.LFE26:
	.size	finish_connection, .-finish_connection
	.p2align 4,,15
	.type	handle_read, @function
handle_read:
.LASANPC20:
.LFB20:
	.loc 1 1586 5 is_stmt 1
	.cfi_startproc
.LVL637:
	.loc 1 1587 5
	.loc 1 1588 5
	.loc 1 1589 5
	.loc 1 1586 5 is_stmt 0
	pushq	%r15
	.cfi_def_cfa_offset 16
	.cfi_offset 15, -16
	pushq	%r14
	.cfi_def_cfa_offset 24
	.cfi_offset 14, -24
	pushq	%r13
	.cfi_def_cfa_offset 32
	.cfi_offset 13, -32
	pushq	%r12
	.cfi_def_cfa_offset 40
	.cfi_offset 12, -40
	pushq	%rbp
	.cfi_def_cfa_offset 48
	.cfi_offset 6, -48
	movq	%rdi, %rbp
	.loc 1 1589 17
	addq	$8, %rdi
.LVL638:
	.loc 1 1586 5
	pushq	%rbx
	.cfi_def_cfa_offset 56
	.cfi_offset 3, -56
	.loc 1 1589 17
	movq	%rdi, %rax
	shrq	$3, %rax
	.loc 1 1586 5
	subq	$24, %rsp
	.cfi_def_cfa_offset 80
	.loc 1 1589 17
	cmpb	$0, 2147450880(%rax)
	jne	.L1215
	movq	8(%rbp), %rbx
.LVL639:
	.loc 1 1592 5 is_stmt 1
	.loc 1 1592 12 is_stmt 0
	leaq	160(%rbx), %r12
	movq	%r12, %r15
	shrq	$3, %r15
	cmpb	$0, 2147450880(%r15)
	jne	.L1216
	.loc 1 1592 28
	leaq	152(%rbx), %r14
	movq	%rsi, %r13
	.loc 1 1592 12
	movq	160(%rbx), %rsi
.LVL640:
	.loc 1 1592 28
	movq	%r14, %rax
	shrq	$3, %rax
	cmpb	$0, 2147450880(%rax)
	jne	.L1217
	movq	152(%rbx), %rdx
	leaq	144(%rbx), %rcx
	.loc 1 1592 8
	cmpq	%rdx, %rsi
	jb	.L1102
	.loc 1 1594 2 is_stmt 1
	.loc 1 1594 5 is_stmt 0
	cmpq	$5000, %rdx
	ja	.L1218
	.loc 1 1600 2
	leaq	144(%rbx), %rcx
	addq	$1000, %rdx
	movq	%r14, %rsi
	movq	%rax, 8(%rsp)
	.loc 1 1600 2 is_stmt 1
	movq	%rcx, %rdi
	movq	%rcx, (%rsp)
	call	httpd_realloc_str
.LVL641:
	movq	8(%rsp), %rax
	movq	(%rsp), %rcx
	cmpb	$0, 2147450880(%rax)
	jne	.L1219
	cmpb	$0, 2147450880(%r15)
	movq	152(%rbx), %rdx
	jne	.L1220
	movq	160(%rbx), %rsi
.L1102:
	.loc 1 1605 5
	.loc 1 1606 19 is_stmt 0
	movq	%rcx, %rax
	.loc 1 1605 10
	subq	%rsi, %rdx
	.loc 1 1606 19
	shrq	$3, %rax
	cmpb	$0, 2147450880(%rax)
	jne	.L1221
	.loc 1 1605 10
	leaq	704(%rbx), %r14
	.loc 1 1606 15
	addq	144(%rbx), %rsi
	.loc 1 1605 10
	movq	%r14, %rax
	shrq	$3, %rax
	movzbl	2147450880(%rax), %eax
	testb	%al, %al
	je	.L1109
	cmpb	$3, %al
	jle	.L1222
.L1109:
	movl	704(%rbx), %edi
	call	read
.LVL642:
	.loc 1 1608 5 is_stmt 1
	.loc 1 1608 8 is_stmt 0
	testl	%eax, %eax
	je	.L1223
	.loc 1 1614 5 is_stmt 1
	.loc 1 1614 8 is_stmt 0
	jns	.L1113
	.loc 1 1621 2 is_stmt 1
	.loc 1 1621 7 is_stmt 0
	call	__errno_location
.LVL643:
	movq	%rax, %rdx
	shrq	$3, %rdx
	movzbl	2147450880(%rdx), %ecx
	movq	%rax, %rdx
	andl	$7, %edx
	addl	$3, %edx
	cmpb	%cl, %dl
	jl	.L1114
	testb	%cl, %cl
	jne	.L1224
.L1114:
	movl	(%rax), %eax
	.loc 1 1621 5
	cmpl	$4, %eax
	je	.L1098
	cmpl	$11, %eax
	jne	.L1225
.L1098:
	.loc 1 1703 5
	addq	$24, %rsp
	.cfi_remember_state
	.cfi_def_cfa_offset 56
	popq	%rbx
	.cfi_def_cfa_offset 48
.LVL644:
	popq	%rbp
	.cfi_def_cfa_offset 40
.LVL645:
	popq	%r12
	.cfi_def_cfa_offset 32
	popq	%r13
	.cfi_def_cfa_offset 24
.LVL646:
	popq	%r14
	.cfi_def_cfa_offset 16
.LVL647:
	popq	%r15
	.cfi_def_cfa_offset 8
	ret
.LVL648:
	.p2align 4,,10
	.p2align 3
.L1113:
	.cfi_restore_state
	.loc 1 1628 5 is_stmt 1
	.loc 1 1628 18 is_stmt 0
	movq	%r12, %rdx
	shrq	$3, %rdx
	cmpb	$0, 2147450880(%rdx)
	jne	.L1226
	cltq
	addq	%rax, 160(%rbx)
	.loc 1 1629 5 is_stmt 1
	.loc 1 1629 23 is_stmt 0
	movq	%r13, %rax
.LVL649:
	shrq	$3, %rax
	cmpb	$0, 2147450880(%rax)
	jne	.L1227
	.loc 1 1629 18
	leaq	88(%rbp), %rdi
	.loc 1 1629 23
	movq	0(%r13), %rax
	.loc 1 1629 18
	movq	%rdi, %rdx
	shrq	$3, %rdx
	cmpb	$0, 2147450880(%rdx)
	jne	.L1228
	movq	%rax, 88(%rbp)
	.loc 1 1632 5 is_stmt 1
	.loc 1 1632 14 is_stmt 0
	movq	%rbx, %rdi
	call	httpd_got_request
.LVL650:
	testl	%eax, %eax
	je	.L1098
	cmpl	$2, %eax
	je	.L1229
	.loc 1 1643 5 is_stmt 1
	.loc 1 1643 10 is_stmt 0
	movq	%rbx, %rdi
	call	httpd_parse_request
.LVL651:
	.loc 1 1643 8
	testl	%eax, %eax
	js	.L1214
	.loc 1 1650 5 is_stmt 1
	.loc 1 1650 12 is_stmt 0
	movq	%rbp, %rdi
	call	check_throttles
.LVL652:
	.loc 1 1650 8
	testl	%eax, %eax
	je	.L1230
	.loc 1 1659 5 is_stmt 1
	.loc 1 1659 10 is_stmt 0
	movq	%r13, %rsi
	movq	%rbx, %rdi
	call	httpd_start_request
.LVL653:
	.loc 1 1659 8
	testl	%eax, %eax
	js	.L1214
	.loc 1 1667 5 is_stmt 1
	.loc 1 1667 12 is_stmt 0
	leaq	528(%rbx), %rdi
	movq	%rdi, %rax
	shrq	$3, %rax
	movzbl	2147450880(%rax), %eax
	testb	%al, %al
	je	.L1130
	cmpb	$3, %al
	jle	.L1231
.L1130:
	.loc 1 1667 8
	movl	528(%rbx), %eax
	testl	%eax, %eax
	je	.L1131
	.loc 1 1669 2 is_stmt 1
	.loc 1 1669 25 is_stmt 0
	leaq	536(%rbx), %rdi
	movq	%rdi, %rax
	shrq	$3, %rax
	cmpb	$0, 2147450880(%rax)
	jne	.L1232
	.loc 1 1669 21
	leaq	136(%rbp), %rdi
	.loc 1 1669 25
	movq	536(%rbx), %rax
	.loc 1 1669 21
	movq	%rdi, %rdx
	shrq	$3, %rdx
	cmpb	$0, 2147450880(%rdx)
	jne	.L1233
	.loc 1 1670 24
	leaq	544(%rbx), %rdi
	.loc 1 1669 21
	movq	%rax, 136(%rbp)
	.loc 1 1670 2 is_stmt 1
	.loc 1 1670 24 is_stmt 0
	movq	%rdi, %rax
	shrq	$3, %rax
	cmpb	$0, 2147450880(%rax)
	jne	.L1234
	.loc 1 1670 20
	leaq	128(%rbp), %rdi
	.loc 1 1670 42
	movq	544(%rbx), %rax
	.loc 1 1670 20
	movq	%rdi, %rdx
	shrq	$3, %rdx
	.loc 1 1670 42
	addq	$1, %rax
	.loc 1 1670 20
	cmpb	$0, 2147450880(%rdx)
	jne	.L1235
.L1140:
	.loc 1 1675 20
	movq	%rax, 128(%rbp)
.L1136:
	.loc 1 1678 5 is_stmt 1
	.loc 1 1678 12 is_stmt 0
	leaq	712(%rbx), %rax
	movq	%rax, %rdx
	shrq	$3, %rdx
	cmpb	$0, 2147450880(%rdx)
	jne	.L1236
	.loc 1 1678 8
	cmpq	$0, 712(%rbx)
	je	.L1237
	.loc 1 1688 5 is_stmt 1
	.loc 1 1688 11 is_stmt 0
	leaq	136(%rbp), %rax
	movq	%rax, %rdx
	shrq	$3, %rdx
	cmpb	$0, 2147450880(%rdx)
	jne	.L1238
	.loc 1 1688 33
	movq	%rdi, %rdx
	.loc 1 1688 11
	movq	136(%rbp), %rax
	.loc 1 1688 33
	shrq	$3, %rdx
	cmpb	$0, 2147450880(%rdx)
	jne	.L1239
	.loc 1 1688 8
	cmpq	128(%rbp), %rax
	jge	.L1214
	.loc 1 1696 5 is_stmt 1
	.loc 1 1696 19 is_stmt 0
	movq	%rbp, %rax
	shrq	$3, %rax
	movzbl	2147450880(%rax), %eax
	testb	%al, %al
	je	.L1153
	cmpb	$3, %al
	jle	.L1240
.L1153:
	.loc 1 1697 24
	movq	%r13, %rax
	.loc 1 1696 19
	movl	$2, 0(%rbp)
	.loc 1 1697 5 is_stmt 1
	.loc 1 1697 24 is_stmt 0
	shrq	$3, %rax
	cmpb	$0, 2147450880(%rax)
	jne	.L1241
	.loc 1 1697 19
	leaq	80(%rbp), %rdi
	.loc 1 1697 24
	movq	0(%r13), %rax
	.loc 1 1697 19
	movq	%rdi, %rdx
	shrq	$3, %rdx
	cmpb	$0, 2147450880(%rdx)
	jne	.L1242
	.loc 1 1698 25
	leaq	112(%rbp), %rdi
	.loc 1 1697 19
	movq	%rax, 80(%rbp)
	.loc 1 1698 5 is_stmt 1
	.loc 1 1698 25 is_stmt 0
	movq	%rdi, %rax
	shrq	$3, %rax
	cmpb	$0, 2147450880(%rax)
	jne	.L1243
	.loc 1 1701 5
	movq	%r14, %rax
	.loc 1 1698 25
	movq	$0, 112(%rbp)
	.loc 1 1699 5 is_stmt 1
.LVL654:
	.loc 1 1701 5
	shrq	$3, %rax
	movzbl	2147450880(%rax), %eax
	testb	%al, %al
	je	.L1157
	cmpb	$3, %al
	jle	.L1244
.L1157:
	movl	704(%rbx), %edi
	call	fdwatch_del_fd
.LVL655:
	.loc 1 1702 5
	movq	%r14, %rax
	shrq	$3, %rax
	movzbl	2147450880(%rax), %eax
	testb	%al, %al
	je	.L1158
	cmpb	$3, %al
	jle	.L1245
.L1158:
	movl	704(%rbx), %edi
	.loc 1 1703 5 is_stmt 0
	addq	$24, %rsp
	.cfi_remember_state
	.cfi_def_cfa_offset 56
	.loc 1 1702 5
	movq	%rbp, %rsi
	movl	$1, %edx
	.loc 1 1703 5
	popq	%rbx
	.cfi_def_cfa_offset 48
.LVL656:
	popq	%rbp
	.cfi_def_cfa_offset 40
.LVL657:
	popq	%r12
	.cfi_def_cfa_offset 32
	popq	%r13
	.cfi_def_cfa_offset 24
.LVL658:
	popq	%r14
	.cfi_def_cfa_offset 16
.LVL659:
	popq	%r15
	.cfi_def_cfa_offset 8
	.loc 1 1702 5
	jmp	fdwatch_add_fd
.LVL660:
	.p2align 4,,10
	.p2align 3
.L1218:
	.cfi_restore_state
	.loc 1 1596 6 is_stmt 1
	movl	$httpd_err400form, %eax
	shrq	$3, %rax
	cmpb	$0, 2147450880(%rax)
	jne	.L1246
	movl	$httpd_err400title, %eax
	movq	httpd_err400form(%rip), %r8
	shrq	$3, %rax
	cmpb	$0, 2147450880(%rax)
	jne	.L1247
.L1123:
	.loc 1 1637 2 is_stmt 0
	movl	$.LC49, %r9d
	movq	httpd_err400title(%rip), %rdx
	movl	$400, %esi
	movq	%rbx, %rdi
	movq	%r9, %rcx
	call	httpd_send_err
.LVL661:
	.loc 1 1638 2 is_stmt 1
.L1214:
	.loc 1 1654 2
	.loc 1 1703 5 is_stmt 0
	addq	$24, %rsp
	.cfi_remember_state
	.cfi_def_cfa_offset 56
	.loc 1 1654 2
	movq	%r13, %rsi
	movq	%rbp, %rdi
	.loc 1 1703 5
	popq	%rbx
	.cfi_def_cfa_offset 48
.LVL662:
	popq	%rbp
	.cfi_def_cfa_offset 40
.LVL663:
	popq	%r12
	.cfi_def_cfa_offset 32
.LVL664:
	popq	%r13
	.cfi_def_cfa_offset 24
.LVL665:
	popq	%r14
	.cfi_def_cfa_offset 16
	popq	%r15
	.cfi_def_cfa_offset 8
	.loc 1 1654 2
	jmp	finish_connection
.LVL666:
	.p2align 4,,10
	.p2align 3
.L1229:
	.cfi_restore_state
	.loc 1 1637 2 is_stmt 1
	movl	$httpd_err400form, %eax
	shrq	$3, %rax
	cmpb	$0, 2147450880(%rax)
	jne	.L1248
	movl	$httpd_err400title, %eax
	movq	httpd_err400form(%rip), %r8
	shrq	$3, %rax
	cmpb	$0, 2147450880(%rax)
	je	.L1123
	movl	$httpd_err400title, %edi
	call	__asan_report_load8
.LVL667:
	.p2align 4,,10
	.p2align 3
.L1225:
	.loc 1 1623 2
	movl	$httpd_err400form, %eax
	shrq	$3, %rax
	cmpb	$0, 2147450880(%rax)
	jne	.L1249
	movl	$httpd_err400title, %eax
	movq	httpd_err400form(%rip), %r8
	shrq	$3, %rax
	cmpb	$0, 2147450880(%rax)
	je	.L1123
	movl	$httpd_err400title, %edi
	call	__asan_report_load8
.LVL668:
	.p2align 4,,10
	.p2align 3
.L1223:
	.loc 1 1610 2
	movl	$httpd_err400form, %eax
.LVL669:
	shrq	$3, %rax
	cmpb	$0, 2147450880(%rax)
	jne	.L1250
	movl	$httpd_err400title, %eax
	movq	httpd_err400form(%rip), %r8
	shrq	$3, %rax
	cmpb	$0, 2147450880(%rax)
	je	.L1123
	movl	$httpd_err400title, %edi
	call	__asan_report_load8
.LVL670:
	.p2align 4,,10
	.p2align 3
.L1230:
	.loc 1 1652 2
	leaq	208(%rbx), %rdi
	movq	%rdi, %rax
	shrq	$3, %rax
	cmpb	$0, 2147450880(%rax)
	jne	.L1251
	movl	$httpd_err503form, %eax
	movq	208(%rbx), %r9
	shrq	$3, %rax
	cmpb	$0, 2147450880(%rax)
	jne	.L1252
	movl	$httpd_err503title, %eax
	movq	httpd_err503form(%rip), %r8
	shrq	$3, %rax
	cmpb	$0, 2147450880(%rax)
	jne	.L1253
	movq	httpd_err503title(%rip), %rdx
	movl	$.LC49, %ecx
	movl	$503, %esi
	movq	%rbx, %rdi
	call	httpd_send_err
.LVL671:
	jmp	.L1214
.L1222:
	.loc 1 1605 10 is_stmt 0
	movq	%r14, %rdi
	call	__asan_report_load4
.LVL672:
.L1224:
	.loc 1 1621 7
	movq	%rax, %rdi
	call	__asan_report_load4
.LVL673:
	.p2align 4,,10
	.p2align 3
.L1131:
	.loc 1 1672 10 is_stmt 1
	.loc 1 1672 17 is_stmt 0
	leaq	192(%rbx), %rdi
	movq	%rdi, %rax
	shrq	$3, %rax
	cmpb	$0, 2147450880(%rax)
	jne	.L1254
	movq	192(%rbx), %rax
	.loc 1 1673 20
	leaq	128(%rbp), %rdi
	.loc 1 1672 13
	testq	%rax, %rax
	js	.L1255
	.loc 1 1675 2 is_stmt 1
	.loc 1 1675 20 is_stmt 0
	movq	%rdi, %rdx
	shrq	$3, %rdx
	cmpb	$0, 2147450880(%rdx)
	je	.L1140
	call	__asan_report_store8
.LVL674:
	.p2align 4,,10
	.p2align 3
.L1255:
	.loc 1 1673 2 is_stmt 1
	.loc 1 1673 20 is_stmt 0
	movq	%rdi, %rax
	shrq	$3, %rax
	cmpb	$0, 2147450880(%rax)
	jne	.L1256
	movq	$0, 128(%rbp)
	jmp	.L1136
.L1237:
.LVL675:
.LBB5:
	.loc 1 1682 26
	leaq	56(%rbp), %rdi
	movq	%rdi, %rax
	shrq	$3, %rax
	movzbl	2147450880(%rax), %eax
	testb	%al, %al
	je	.L1143
	cmpb	$3, %al
	jle	.L1257
.L1143:
	leaq	200(%rbx), %rdi
	movl	56(%rbp), %eax
	movq	%rdi, %rdx
	shrq	$3, %rdx
	cmpb	$0, 2147450880(%rdx)
	jne	.L1258
	movq	200(%rbx), %rsi
	.loc 1 1682 2
	testl	%eax, %eax
	jle	.L1150
	subl	$1, %eax
	.loc 1 1683 48
	movq	throttles(%rip), %r9
	leaq	16(%rbp), %rdi
	leaq	20(%rbp,%rax,4), %r8
.LVL676:
	.p2align 4,,10
	.p2align 3
.L1149:
	.loc 1 1683 6 is_stmt 1 discriminator 3
	.loc 1 1683 24 is_stmt 0 discriminator 3
	movq	%rdi, %rax
	shrq	$3, %rax
	movzbl	2147450880(%rax), %edx
	movq	%rdi, %rax
	andl	$7, %eax
	addl	$3, %eax
	cmpb	%dl, %al
	jl	.L1147
	testb	%dl, %dl
	jne	.L1259
.L1147:
	.loc 1 1683 48 discriminator 3
	movslq	(%rdi), %rax
	leaq	(%rax,%rax,2), %rax
	salq	$4, %rax
	addq	%r9, %rax
	leaq	32(%rax), %rdx
	movq	%rdx, %rcx
	shrq	$3, %rcx
	cmpb	$0, 2147450880(%rcx)
	jne	.L1260
	addq	$4, %rdi
	addq	%rsi, 32(%rax)
	.loc 1 1682 2 discriminator 3
	cmpq	%r8, %rdi
	jne	.L1149
.L1150:
	.loc 1 1684 2 is_stmt 1
	.loc 1 1684 21 is_stmt 0
	leaq	136(%rbp), %rdi
	movq	%rdi, %rax
	shrq	$3, %rax
	cmpb	$0, 2147450880(%rax)
	jne	.L1261
	movq	%rsi, 136(%rbp)
	.loc 1 1685 2 is_stmt 1
	jmp	.L1214
.LVL677:
.L1215:
.LBE5:
	.loc 1 1589 17 is_stmt 0
	call	__asan_report_load8
.LVL678:
.L1217:
	.loc 1 1592 28
	movq	%r14, %rdi
	call	__asan_report_load8
.LVL679:
.L1216:
	.loc 1 1592 12
	movq	%r12, %rdi
	call	__asan_report_load8
.LVL680:
.L1221:
	.loc 1 1606 19
	movq	%rcx, %rdi
	call	__asan_report_load8
.LVL681:
.L1219:
	movq	%r14, %rdi
	call	__asan_report_load8
.LVL682:
.L1220:
	movq	%r12, %rdi
	call	__asan_report_load8
.LVL683:
.L1247:
	.loc 1 1596 6
	movl	$httpd_err400title, %edi
	call	__asan_report_load8
.LVL684:
.L1226:
	.loc 1 1628 18
	movq	%r12, %rdi
	call	__asan_report_load8
.LVL685:
.L1227:
	.loc 1 1629 23
	movq	%r13, %rdi
	call	__asan_report_load8
.LVL686:
.L1228:
	.loc 1 1629 18
	call	__asan_report_store8
.LVL687:
.L1246:
	.loc 1 1596 6
	movl	$httpd_err400form, %edi
	call	__asan_report_load8
.LVL688:
.L1249:
	.loc 1 1623 2
	movl	$httpd_err400form, %edi
	call	__asan_report_load8
.LVL689:
.L1250:
	.loc 1 1610 2
	movl	$httpd_err400form, %edi
	call	__asan_report_load8
.LVL690:
.L1258:
	call	__asan_report_load8
.LVL691:
.L1260:
.LBB6:
	.loc 1 1683 48
	movq	%rdx, %rdi
	call	__asan_report_load8
.LVL692:
.L1261:
	.loc 1 1684 21
	call	__asan_report_store8
.LVL693:
.L1253:
.LBE6:
	.loc 1 1652 2
	movl	$httpd_err503title, %edi
	call	__asan_report_load8
.LVL694:
.L1252:
	movl	$httpd_err503form, %edi
	call	__asan_report_load8
.LVL695:
.L1251:
	call	__asan_report_load8
.LVL696:
.L1254:
	.loc 1 1672 17
	call	__asan_report_load8
.LVL697:
.L1232:
	.loc 1 1669 25
	call	__asan_report_load8
.LVL698:
.L1257:
.LBB7:
	.loc 1 1682 26
	call	__asan_report_load4
.LVL699:
.L1259:
	.loc 1 1683 24
	call	__asan_report_load4
.LVL700:
.L1248:
.LBE7:
	.loc 1 1637 2
	movl	$httpd_err400form, %edi
	call	__asan_report_load8
.LVL701:
.L1231:
	.loc 1 1667 12
	call	__asan_report_load4
.LVL702:
.L1240:
	.loc 1 1696 19
	movq	%rbp, %rdi
	call	__asan_report_store4
.LVL703:
.L1242:
	.loc 1 1697 19
	call	__asan_report_store8
.LVL704:
.L1241:
	.loc 1 1697 24
	movq	%r13, %rdi
	call	__asan_report_load8
.LVL705:
.L1243:
	.loc 1 1698 25
	call	__asan_report_store8
.LVL706:
.L1245:
	.loc 1 1702 5
	movq	%r14, %rdi
	call	__asan_report_load4
.LVL707:
.L1236:
	.loc 1 1678 12
	movq	%rax, %rdi
	call	__asan_report_load8
.LVL708:
.L1235:
	.loc 1 1670 20
	call	__asan_report_store8
.LVL709:
.L1234:
	.loc 1 1670 24
	call	__asan_report_load8
.LVL710:
.L1233:
	.loc 1 1669 21
	call	__asan_report_store8
.LVL711:
.L1239:
	.loc 1 1688 33
	call	__asan_report_load8
.LVL712:
.L1244:
	.loc 1 1701 5
	movq	%r14, %rdi
	call	__asan_report_load4
.LVL713:
.L1238:
	.loc 1 1688 11
	movq	%rax, %rdi
	call	__asan_report_load8
.LVL714:
.L1256:
	.loc 1 1673 20
	call	__asan_report_store8
.LVL715:
	.cfi_endproc
.LFE20:
	.size	handle_read, .-handle_read
	.section	.rodata
	.align 32
.LC95:
	.string	"%.80s connection timed out reading"
	.zero	61
	.align 32
.LC96:
	.string	"%.80s connection timed out sending"
	.zero	61
	.text
	.p2align 4,,15
	.type	idle, @function
idle:
.LASANPC29:
.LFB29:
	.loc 1 2068 5 is_stmt 1
	.cfi_startproc
.LVL716:
	.loc 1 2069 5
	.loc 1 2070 5
	.loc 1 2072 5
	movl	max_connects(%rip), %eax
	testl	%eax, %eax
	jle	.L1289
	.loc 1 2068 5 is_stmt 0
	pushq	%r15
	.cfi_def_cfa_offset 16
	.cfi_offset 15, -16
	.loc 1 2078 15
	movq	%rsi, %r15
	.loc 1 2068 5
	pushq	%r14
	.cfi_def_cfa_offset 24
	.cfi_offset 14, -24
	.loc 1 2078 15
	shrq	$3, %r15
	.loc 1 2072 5
	xorl	%r14d, %r14d
	.loc 1 2068 5
	pushq	%r13
	.cfi_def_cfa_offset 32
	.cfi_offset 13, -32
	pushq	%r12
	.cfi_def_cfa_offset 40
	.cfi_offset 12, -40
	.loc 1 2083 3
	movl	$httpd_err408form, %r12d
	.loc 1 2068 5
	pushq	%rbp
	.cfi_def_cfa_offset 48
	.cfi_offset 6, -48
	.loc 1 2083 3
	shrq	$3, %r12
	movq	%rsi, %rbp
	.loc 1 2068 5
	pushq	%rbx
	.cfi_def_cfa_offset 56
	.cfi_offset 3, -56
	subq	$24, %rsp
	.cfi_def_cfa_offset 80
	jmp	.L1279
.LVL717:
	.p2align 4,,10
	.p2align 3
.L1297:
	testl	%eax, %eax
	jle	.L1266
	cmpl	$3, %eax
	jg	.L1266
	.loc 1 2090 6 is_stmt 1
	.loc 1 2090 15 is_stmt 0
	cmpb	$0, 2147450880(%r15)
	jne	.L1292
	.loc 1 2090 27
	leaq	88(%rbx), %rdi
.LVL718:
	.loc 1 2090 15
	movq	0(%rbp), %rax
	.loc 1 2090 27
	movq	%rdi, %rdx
	shrq	$3, %rdx
	cmpb	$0, 2147450880(%rdx)
	jne	.L1293
	.loc 1 2090 24
	subq	88(%rbx), %rax
	.loc 1 2090 9
	cmpq	$299, %rax
	jg	.L1294
.LVL719:
	.p2align 4,,10
	.p2align 3
.L1266:
	addq	$1, %r14
.LVL720:
	.loc 1 2072 5 discriminator 2
	cmpl	%r14d, max_connects(%rip)
	jle	.L1295
.LVL721:
.L1279:
	.loc 1 2074 2 is_stmt 1
	.loc 1 2074 4 is_stmt 0
	leaq	(%r14,%r14,8), %rbx
	salq	$4, %rbx
	addq	connects(%rip), %rbx
.LVL722:
	.loc 1 2075 2 is_stmt 1
	.loc 1 2075 12 is_stmt 0
	movq	%rbx, %rax
	shrq	$3, %rax
	movzbl	2147450880(%rax), %eax
	testb	%al, %al
	je	.L1264
	cmpb	$3, %al
	jle	.L1296
.L1264:
	movl	(%rbx), %eax
	cmpl	$1, %eax
	jne	.L1297
	.loc 1 2078 6 is_stmt 1
	.loc 1 2078 15 is_stmt 0
	cmpb	$0, 2147450880(%r15)
	jne	.L1298
	.loc 1 2078 27
	leaq	88(%rbx), %rdi
.LVL723:
	.loc 1 2078 15
	movq	0(%rbp), %rax
	.loc 1 2078 27
	movq	%rdi, %rdx
	shrq	$3, %rdx
	cmpb	$0, 2147450880(%rdx)
	jne	.L1299
	.loc 1 2078 24
	subq	88(%rbx), %rax
	.loc 1 2078 9
	cmpq	$59, %rax
	jle	.L1266
	.loc 1 2080 3 is_stmt 1
	.loc 1 2082 21 is_stmt 0
	leaq	8(%rbx), %r13
	movq	%r13, %rcx
	shrq	$3, %rcx
	cmpb	$0, 2147450880(%rcx)
	jne	.L1300
	.loc 1 2080 3
	movq	8(%rbx), %rax
	movq	%rcx, 8(%rsp)
	leaq	16(%rax), %rdi
	call	httpd_ntoa
.LVL724:
	movl	$.LC95, %esi
	movl	$6, %edi
	movq	%rax, %rdx
	xorl	%eax, %eax
	call	syslog
.LVL725:
	.loc 1 2083 3 is_stmt 1
	movq	8(%rsp), %rcx
	cmpb	$0, 2147450880(%r12)
	jne	.L1301
	movl	$httpd_err408title, %eax
	movq	httpd_err408form(%rip), %r8
	shrq	$3, %rax
	cmpb	$0, 2147450880(%rax)
	jne	.L1302
	cmpb	$0, 2147450880(%rcx)
	movq	httpd_err408title(%rip), %rdx
	jne	.L1303
	movl	$.LC49, %r9d
	movq	8(%rbx), %rdi
	movl	$408, %esi
	addq	$1, %r14
.LVL726:
	movq	%r9, %rcx
	call	httpd_send_err
.LVL727:
	.loc 1 2085 3
	movq	%rbp, %rsi
	movq	%rbx, %rdi
	call	finish_connection
.LVL728:
	.loc 1 2072 5 is_stmt 0
	cmpl	%r14d, max_connects(%rip)
	jg	.L1279
.LVL729:
.L1295:
	.loc 1 2100 5
	addq	$24, %rsp
	.cfi_remember_state
	.cfi_def_cfa_offset 56
	popq	%rbx
	.cfi_def_cfa_offset 48
.LVL730:
	popq	%rbp
	.cfi_def_cfa_offset 40
.LVL731:
	popq	%r12
	.cfi_def_cfa_offset 32
	popq	%r13
	.cfi_def_cfa_offset 24
	popq	%r14
	.cfi_def_cfa_offset 16
	popq	%r15
	.cfi_def_cfa_offset 8
	ret
.LVL732:
	.p2align 4,,10
	.p2align 3
.L1294:
	.cfi_restore_state
	.loc 1 2092 3 is_stmt 1
	.loc 1 2094 21 is_stmt 0
	leaq	8(%rbx), %rdi
	movq	%rdi, %rax
	shrq	$3, %rax
	cmpb	$0, 2147450880(%rax)
	jne	.L1304
	.loc 1 2092 3
	movq	8(%rbx), %rax
	leaq	16(%rax), %rdi
	call	httpd_ntoa
.LVL733:
	movl	$.LC96, %esi
	movl	$6, %edi
	movq	%rax, %rdx
	xorl	%eax, %eax
	call	syslog
.LVL734:
	.loc 1 2095 3 is_stmt 1
	movq	%rbp, %rsi
	movq	%rbx, %rdi
	call	clear_connection
.LVL735:
	jmp	.L1266
.LVL736:
	.p2align 4,,10
	.p2align 3
.L1289:
	.cfi_def_cfa_offset 8
	.cfi_restore 3
	.cfi_restore 6
	.cfi_restore 12
	.cfi_restore 13
	.cfi_restore 14
	.cfi_restore 15
	ret
.LVL737:
.L1296:
	.cfi_def_cfa_offset 80
	.cfi_offset 3, -56
	.cfi_offset 6, -48
	.cfi_offset 12, -40
	.cfi_offset 13, -32
	.cfi_offset 14, -24
	.cfi_offset 15, -16
	.loc 1 2075 12 is_stmt 0
	movq	%rbx, %rdi
.LVL738:
	call	__asan_report_load4
.LVL739:
.L1299:
	.loc 1 2078 27
	call	__asan_report_load8
.LVL740:
.L1298:
	.loc 1 2078 15
	movq	%rbp, %rdi
.LVL741:
	call	__asan_report_load8
.LVL742:
.L1293:
	.loc 1 2090 27
	call	__asan_report_load8
.LVL743:
.L1292:
	.loc 1 2090 15
	movq	%rbp, %rdi
.LVL744:
	call	__asan_report_load8
.LVL745:
.L1304:
	.loc 1 2094 21
	call	__asan_report_load8
.LVL746:
.L1303:
	.loc 1 2083 3
	movq	%r13, %rdi
	call	__asan_report_load8
.LVL747:
.L1302:
	movl	$httpd_err408title, %edi
	call	__asan_report_load8
.LVL748:
.L1301:
	movl	$httpd_err408form, %edi
	call	__asan_report_load8
.LVL749:
.L1300:
	.loc 1 2082 21
	movq	%r13, %rdi
	call	__asan_report_load8
.LVL750:
	.cfi_endproc
.LFE29:
	.size	idle, .-idle
	.section	.rodata.str1.1
.LC97:
	.string	"1 32 32 2 iv "
	.section	.rodata
	.align 32
.LC98:
	.string	"replacing non-null wakeup_timer!"
	.zero	63
	.align 32
.LC99:
	.string	"tmr_create(wakeup_connection) failed"
	.zero	59
	.align 32
.LC100:
	.string	"write - %m sending %.80s"
	.zero	39
	.text
	.p2align 4,,15
	.type	handle_send, @function
handle_send:
.LASANPC21:
.LFB21:
	.loc 1 1708 5 is_stmt 1
	.cfi_startproc
.LVL751:
	pushq	%r15
	.cfi_def_cfa_offset 16
	.cfi_offset 15, -16
	pushq	%r14
	.cfi_def_cfa_offset 24
	.cfi_offset 14, -24
	movq	%rdi, %r14
	pushq	%r13
	.cfi_def_cfa_offset 32
	.cfi_offset 13, -32
	pushq	%r12
	.cfi_def_cfa_offset 40
	.cfi_offset 12, -40
	pushq	%rbp
	.cfi_def_cfa_offset 48
	.cfi_offset 6, -48
	pushq	%rbx
	.cfi_def_cfa_offset 56
	.cfi_offset 3, -56
	subq	$152, %rsp
	.cfi_def_cfa_offset 208
	movl	__asan_option_detect_stack_use_after_return(%rip), %eax
	movq	%rsi, (%rsp)
	leaq	48(%rsp), %r15
	testl	%eax, %eax
	jne	.L1460
.LVL752:
.L1305:
	.loc 1 1709 5
	.loc 1 1710 5
	.loc 1 1711 5
	.loc 1 1712 5
	.loc 1 1713 5
	.loc 1 1713 17 is_stmt 0
	leaq	8(%r14), %r12
	.loc 1 1708 5
	movq	%r15, %rbx
	movq	$1102416563, (%r15)
.LVL753:
	leaq	96(%r15), %rax
	.loc 1 1713 17
	movq	%r12, %rdx
	.loc 1 1708 5
	shrq	$3, %rbx
	movq	$.LC97, 8(%r15)
	.loc 1 1713 17
	shrq	$3, %rdx
	.loc 1 1708 5
	movq	$.LASANPC21, 16(%r15)
	movl	$-235802127, 2147450880(%rbx)
	movl	$-202116109, 2147450888(%rbx)
	.loc 1 1713 17
	cmpb	$0, 2147450880(%rdx)
	jne	.L1461
	.loc 1 1716 11
	leaq	64(%r14), %rcx
	.loc 1 1713 17
	movq	8(%r14), %rbp
.LVL754:
	.loc 1 1714 5 is_stmt 1
	.loc 1 1716 5
	.loc 1 1716 11 is_stmt 0
	movq	%rcx, %rdx
	movq	%rcx, 16(%rsp)
	shrq	$3, %rdx
	cmpb	$0, 2147450880(%rdx)
	jne	.L1462
	movq	64(%r14), %rsi
	.loc 1 1717 12
	movl	$1000000000, %edx
	.loc 1 1716 8
	cmpq	$-1, %rsi
	je	.L1311
	.loc 1 1719 2 is_stmt 1
	.loc 1 1719 27 is_stmt 0
	testq	%rsi, %rsi
	leaq	3(%rsi), %rdx
	cmovns	%rsi, %rdx
	.loc 1 1719 12
	sarq	$2, %rdx
.LVL755:
.L1311:
	.loc 1 1722 5 is_stmt 1
	.loc 1 1722 12 is_stmt 0
	leaq	472(%rbp), %r11
	movq	%r11, %rsi
	shrq	$3, %rsi
	cmpb	$0, 2147450880(%rsi)
	jne	.L1463
	.loc 1 1722 8
	cmpq	$0, 472(%rbp)
	jne	.L1313
	.loc 1 1725 2 is_stmt 1
	.loc 1 1727 6 is_stmt 0
	leaq	128(%r14), %rax
	movq	%rax, 8(%rsp)
	shrq	$3, %rax
	cmpb	$0, 2147450880(%rax)
	jne	.L1464
	leaq	136(%r14), %r10
	movq	128(%r14), %rax
	movq	%r10, %rsi
	shrq	$3, %rsi
	cmpb	$0, 2147450880(%rsi)
	jne	.L1465
	movq	136(%r14), %rsi
	.loc 1 1726 23
	leaq	712(%rbp), %rdi
	.loc 1 1727 6
	subq	%rsi, %rax
	.loc 1 1725 7
	cmpq	%rdx, %rax
	cmovbe	%rax, %rdx
.LVL756:
	.loc 1 1726 23
	movq	%rdi, %rax
	shrq	$3, %rax
	cmpb	$0, 2147450880(%rax)
	jne	.L1466
	.loc 1 1725 7
	leaq	704(%rbp), %r13
	.loc 1 1726 19
	addq	712(%rbp), %rsi
	.loc 1 1725 7
	movq	%r13, %rax
	shrq	$3, %rax
	movzbl	2147450880(%rax), %eax
	testb	%al, %al
	je	.L1317
	cmpb	$3, %al
	jle	.L1467
.L1317:
	movl	704(%rbp), %edi
	movq	%r10, 32(%rsp)
	movq	%r11, 24(%rsp)
	call	write
.LVL757:
	movq	24(%rsp), %r11
	movq	32(%rsp), %r10
	.loc 1 1743 5 is_stmt 1
	.loc 1 1743 8 is_stmt 0
	testl	%eax, %eax
	js	.L1468
.L1328:
	.loc 1 1746 5 is_stmt 1
	.loc 1 1746 8 is_stmt 0
	jne	.L1469
.LVL758:
.L1376:
	.loc 1 1759 2 is_stmt 1
	.loc 1 1759 22 is_stmt 0
	leaq	112(%r14), %r12
	movq	%r12, %rax
	shrq	$3, %rax
	cmpb	$0, 2147450880(%rax)
	jne	.L1470
	.loc 1 1760 16
	movq	%r14, %rax
	.loc 1 1759 22
	addq	$100, 112(%r14)
	.loc 1 1760 2 is_stmt 1
	.loc 1 1760 16 is_stmt 0
	shrq	$3, %rax
	movzbl	2147450880(%rax), %eax
	testb	%al, %al
	je	.L1333
	cmpb	$3, %al
	jle	.L1471
.L1333:
	.loc 1 1761 2
	movq	%r13, %rax
	.loc 1 1760 16
	movl	$3, (%r14)
	.loc 1 1761 2 is_stmt 1
	shrq	$3, %rax
	movzbl	2147450880(%rax), %eax
	testb	%al, %al
	je	.L1334
	cmpb	$3, %al
	jle	.L1472
.L1334:
	movl	704(%rbp), %edi
	.loc 1 1763 8 is_stmt 0
	leaq	96(%r14), %r13
	.loc 1 1761 2
	call	fdwatch_del_fd
.LVL759:
	.loc 1 1762 2 is_stmt 1
	.loc 1 1763 2
	.loc 1 1763 8 is_stmt 0
	movq	%r13, %rax
	shrq	$3, %rax
	cmpb	$0, 2147450880(%rax)
	jne	.L1473
	.loc 1 1763 5
	cmpq	$0, 96(%r14)
	je	.L1336
	.loc 1 1764 6 is_stmt 1
	movl	$.LC98, %esi
	movl	$3, %edi
	xorl	%eax, %eax
	call	syslog
.LVL760:
.L1336:
	.loc 1 1765 2
	.loc 1 1765 20 is_stmt 0
	movq	%r12, %rax
	shrq	$3, %rax
	cmpb	$0, 2147450880(%rax)
	jne	.L1474
	movq	112(%r14), %rcx
	movq	(%rsp), %rdi
	xorl	%r8d, %r8d
	movq	%r14, %rdx
	movl	$wakeup_connection, %esi
	call	tmr_create
.LVL761:
	.loc 1 1765 18
	movq	%r13, %rdx
	shrq	$3, %rdx
	cmpb	$0, 2147450880(%rdx)
	jne	.L1475
.L1338:
	movq	%rax, 96(%r14)
	.loc 1 1767 2 is_stmt 1
	.loc 1 1767 5 is_stmt 0
	testq	%rax, %rax
	je	.L1476
.L1308:
	.loc 1 1708 5
	leaq	48(%rsp), %rax
	cmpq	%r15, %rax
	jne	.L1477
	movq	$0, 2147450880(%rbx)
	movl	$0, 2147450888(%rbx)
.L1307:
	.loc 1 1861 5
	addq	$152, %rsp
	.cfi_remember_state
	.cfi_def_cfa_offset 56
	popq	%rbx
	.cfi_def_cfa_offset 48
	popq	%rbp
	.cfi_def_cfa_offset 40
.LVL762:
	popq	%r12
	.cfi_def_cfa_offset 32
	popq	%r13
	.cfi_def_cfa_offset 24
	popq	%r14
	.cfi_def_cfa_offset 16
.LVL763:
	popq	%r15
	.cfi_def_cfa_offset 8
	ret
.LVL764:
	.p2align 4,,10
	.p2align 3
.L1313:
	.cfi_restore_state
.LBB8:
	.loc 1 1734 2 is_stmt 1
	.loc 1 1736 2
	.loc 1 1736 21 is_stmt 0
	leaq	368(%rbp), %rdi
	movq	%rdi, %rsi
	shrq	$3, %rsi
	cmpb	$0, 2147450880(%rsi)
	jne	.L1478
	.loc 1 1736 17
	leaq	-64(%rax), %r9
	.loc 1 1736 21
	movq	368(%rbp), %rsi
	.loc 1 1736 17
	movq	%r9, %rdi
	shrq	$3, %rdi
	cmpb	$0, 2147450880(%rdi)
	jne	.L1479
	.loc 1 1737 16
	leaq	8(%r9), %rdi
	.loc 1 1736 17
	movq	%rsi, -64(%rax)
	.loc 1 1737 2 is_stmt 1
	.loc 1 1737 20 is_stmt 0
	movq	472(%rbp), %rsi
	.loc 1 1737 16
	movq	%rdi, %r8
	shrq	$3, %r8
	cmpb	$0, 2147450880(%r8)
	jne	.L1480
	.loc 1 1738 23
	leaq	712(%rbp), %rdi
	.loc 1 1737 16
	movq	%rsi, -56(%rax)
	.loc 1 1738 2 is_stmt 1
	.loc 1 1738 23 is_stmt 0
	movq	%rdi, %rsi
	shrq	$3, %rsi
	cmpb	$0, 2147450880(%rsi)
	jne	.L1481
	.loc 1 1738 39
	leaq	136(%r14), %r10
	.loc 1 1738 23
	movq	712(%rbp), %rsi
	.loc 1 1738 39
	movq	%r10, %rdi
	shrq	$3, %rdi
	cmpb	$0, 2147450880(%rdi)
	jne	.L1482
	.loc 1 1738 17
	leaq	16(%r9), %rdi
	.loc 1 1738 39
	movq	136(%r14), %r13
	.loc 1 1738 17
	movq	%rdi, %r8
	shrq	$3, %r8
	.loc 1 1738 19
	addq	%r13, %rsi
	.loc 1 1738 17
	cmpb	$0, 2147450880(%r8)
	jne	.L1483
	.loc 1 1739 18
	leaq	128(%r14), %rcx
	.loc 1 1738 17
	movq	%rsi, -48(%rax)
	.loc 1 1739 2 is_stmt 1
	.loc 1 1739 18 is_stmt 0
	movq	%rcx, %rsi
	movq	%rcx, 8(%rsp)
	shrq	$3, %rsi
	cmpb	$0, 2147450880(%rsi)
	jne	.L1484
	movq	128(%r14), %rsi
	.loc 1 1739 16
	leaq	24(%r9), %rdi
	.loc 1 1739 18
	subq	%r13, %rsi
	cmpq	%rdx, %rsi
	cmovbe	%rsi, %rdx
.LVL765:
	.loc 1 1739 16
	movq	%rdi, %rsi
	shrq	$3, %rsi
	cmpb	$0, 2147450880(%rsi)
	jne	.L1485
	.loc 1 1740 7
	leaq	704(%rbp), %r13
	.loc 1 1739 16
	movq	%rdx, -40(%rax)
	.loc 1 1740 2 is_stmt 1
	.loc 1 1740 7 is_stmt 0
	movq	%r13, %rax
	shrq	$3, %rax
	movzbl	2147450880(%rax), %eax
	testb	%al, %al
	je	.L1327
	cmpb	$3, %al
	jle	.L1486
.L1327:
	movl	704(%rbp), %edi
	movq	%r9, %rsi
	movl	$2, %edx
	movq	%r10, 40(%rsp)
	movq	%r11, 32(%rsp)
	movq	%r9, 24(%rsp)
	call	writev
.LVL766:
	movq	24(%rsp), %r9
	movq	40(%rsp), %r10
	movq	32(%rsp), %r11
.LBE8:
	.loc 1 1743 5 is_stmt 1
.LBB9:
	shrq	$3, %r9
	movl	$-117901064, 2147450880(%r9)
.LBE9:
	.loc 1 1743 8 is_stmt 0
	testl	%eax, %eax
	jns	.L1328
.L1468:
	.loc 1 1743 20 discriminator 1
	call	__errno_location
.LVL767:
	movq	%rax, %rdx
	shrq	$3, %rdx
	movzbl	2147450880(%rdx), %esi
	movq	%rax, %rdx
	andl	$7, %edx
	addl	$3, %edx
	cmpb	%sil, %dl
	jl	.L1329
	testb	%sil, %sil
	jne	.L1487
.L1329:
	movl	(%rax), %eax
	.loc 1 1743 17 discriminator 1
	cmpl	$4, %eax
	je	.L1308
	.loc 1 1746 5 is_stmt 1
	.loc 1 1747 12 is_stmt 0
	cmpl	$11, %eax
	je	.L1376
	.loc 1 1775 5 is_stmt 1
	.loc 1 1788 2
	.loc 1 1788 22 is_stmt 0
	cmpl	$32, %eax
	setne	%sil
	cmpl	$22, %eax
	setne	%dl
	.loc 1 1788 41
	testb	%dl, %sil
	je	.L1339
	cmpl	$104, %eax
	jne	.L1488
.L1339:
	.loc 1 1790 2 is_stmt 1
	movq	(%rsp), %rsi
	movq	%r14, %rdi
	call	clear_connection
.LVL768:
	.loc 1 1791 2
	jmp	.L1308
.LVL769:
	.p2align 4,,10
	.p2align 3
.L1469:
	.loc 1 1775 5
	.loc 1 1795 5
	.loc 1 1795 23 is_stmt 0
	movq	(%rsp), %rdx
	shrq	$3, %rdx
	cmpb	$0, 2147450880(%rdx)
	jne	.L1489
	.loc 1 1795 18
	leaq	88(%r14), %rdi
	.loc 1 1795 23
	movq	(%rsp), %rcx
	.loc 1 1795 18
	movq	%rdi, %rsi
	shrq	$3, %rsi
	.loc 1 1795 23
	movq	(%rcx), %rdx
	.loc 1 1795 18
	cmpb	$0, 2147450880(%rsi)
	jne	.L1490
	movq	%rdx, 88(%r14)
	.loc 1 1797 5 is_stmt 1
	.loc 1 1797 12 is_stmt 0
	movq	%r11, %rdx
	shrq	$3, %rdx
	cmpb	$0, 2147450880(%rdx)
	jne	.L1491
	movq	472(%rbp), %r9
	.loc 1 1797 8
	testq	%r9, %r9
	jne	.L1345
.L1459:
	movslq	%eax, %rdx
.LVL770:
.L1346:
	.loc 1 1816 5 is_stmt 1
	.loc 1 1816 24 is_stmt 0
	movq	%r10, %rax
	shrq	$3, %rax
	cmpb	$0, 2147450880(%rax)
	jne	.L1492
	movq	136(%r14), %r8
	.loc 1 1817 6
	movq	%r12, %rax
	shrq	$3, %rax
	.loc 1 1816 24
	addq	%rdx, %r8
	.loc 1 1817 6
	cmpb	$0, 2147450880(%rax)
	.loc 1 1816 24
	movq	%r8, 136(%r14)
	.loc 1 1817 5 is_stmt 1
	.loc 1 1817 6 is_stmt 0
	jne	.L1493
	movq	8(%r14), %rax
	.loc 1 1817 23
	leaq	200(%rax), %rdi
	movq	%rdi, %rsi
	shrq	$3, %rsi
	cmpb	$0, 2147450880(%rsi)
	jne	.L1494
	movq	200(%rax), %rcx
	.loc 1 1818 29
	leaq	56(%r14), %rdi
	.loc 1 1817 23
	addq	%rdx, %rcx
	movq	%rcx, 200(%rax)
	.loc 1 1818 5 is_stmt 1
.LVL771:
	.loc 1 1818 29 is_stmt 0
	movq	%rdi, %rax
	shrq	$3, %rax
	movzbl	2147450880(%rax), %eax
	testb	%al, %al
	je	.L1352
	cmpb	$3, %al
	jle	.L1495
.L1352:
	movl	56(%r14), %eax
	.loc 1 1818 5
	testl	%eax, %eax
	jle	.L1360
	subl	$1, %eax
	.loc 1 1819 44
	movq	throttles(%rip), %r11
	leaq	16(%r14), %rdi
	leaq	20(%r14,%rax,4), %r10
.LVL772:
	.p2align 4,,10
	.p2align 3
.L1359:
	.loc 1 1819 2 is_stmt 1 discriminator 3
	.loc 1 1819 20 is_stmt 0 discriminator 3
	movq	%rdi, %rax
	shrq	$3, %rax
	movzbl	2147450880(%rax), %esi
	movq	%rdi, %rax
	andl	$7, %eax
	addl	$3, %eax
	cmpb	%sil, %al
	jl	.L1357
	testb	%sil, %sil
	jne	.L1496
.L1357:
	.loc 1 1819 44 discriminator 3
	movslq	(%rdi), %rax
	leaq	(%rax,%rax,2), %rax
	salq	$4, %rax
	addq	%r11, %rax
	leaq	32(%rax), %rsi
	movq	%rsi, %r9
	shrq	$3, %r9
	cmpb	$0, 2147450880(%r9)
	jne	.L1497
	addq	$4, %rdi
	addq	%rdx, 32(%rax)
	.loc 1 1818 5 discriminator 3
	cmpq	%r10, %rdi
	jne	.L1359
.L1360:
	.loc 1 1822 5 is_stmt 1
	.loc 1 1822 33 is_stmt 0
	movq	8(%rsp), %rax
	shrq	$3, %rax
	cmpb	$0, 2147450880(%rax)
	jne	.L1498
	.loc 1 1822 8
	cmpq	128(%r14), %r8
	jge	.L1499
	.loc 1 1830 5 is_stmt 1
	.loc 1 1830 11 is_stmt 0
	leaq	112(%r14), %rdi
	movq	%rdi, %rax
	shrq	$3, %rax
	cmpb	$0, 2147450880(%rax)
	jne	.L1500
	movq	112(%r14), %rax
	.loc 1 1830 8
	cmpq	$100, %rax
	jg	.L1501
.L1362:
	.loc 1 1834 5 is_stmt 1
	.loc 1 1834 11 is_stmt 0
	movq	16(%rsp), %rax
	shrq	$3, %rax
	cmpb	$0, 2147450880(%rax)
	jne	.L1502
	movq	64(%r14), %rsi
	.loc 1 1834 8
	cmpq	$-1, %rsi
	je	.L1308
	.loc 1 1836 2 is_stmt 1
	.loc 1 1836 27 is_stmt 0
	leaq	80(%r14), %rdi
	.loc 1 1836 15
	movq	(%rsp), %rax
	.loc 1 1836 27
	movq	%rdi, %rdx
	shrq	$3, %rdx
	.loc 1 1836 15
	movq	(%rax), %rax
	.loc 1 1836 27
	cmpb	$0, 2147450880(%rdx)
	jne	.L1503
.LVL773:
	.loc 1 1837 2 is_stmt 1
	.loc 1 1837 5 is_stmt 0
	subq	80(%r14), %rax
.LVL774:
	movq	%rax, %r8
	je	.L1379
	movq	%rcx, %rax
.LVL775:
	cqto
	idivq	%r8
	movq	%rax, %rcx
.LVL776:
.L1365:
	.loc 1 1839 2 is_stmt 1
	.loc 1 1839 5 is_stmt 0
	cmpq	%rcx, %rsi
	jge	.L1308
	.loc 1 1841 6 is_stmt 1
	.loc 1 1841 20 is_stmt 0
	movq	%r14, %rax
	shrq	$3, %rax
	movzbl	2147450880(%rax), %eax
	testb	%al, %al
	je	.L1366
	cmpb	$3, %al
	jg	.L1366
	movq	%r14, %rdi
	call	__asan_report_store4
.LVL777:
	.p2align 4,,10
	.p2align 3
.L1345:
	.loc 1 1800 2 is_stmt 1
	.loc 1 1800 10 is_stmt 0
	movslq	%eax, %rsi
	.loc 1 1800 5
	cmpq	%rsi, %r9
	ja	.L1504
	.loc 1 1811 6 is_stmt 1
.LVL778:
	.loc 1 1812 6
	.loc 1 1812 22 is_stmt 0
	movq	$0, 472(%rbp)
	.loc 1 1811 9
	subl	%r9d, %eax
.LVL779:
	jmp	.L1459
.LVL780:
	.p2align 4,,10
	.p2align 3
.L1501:
	.loc 1 1831 2 is_stmt 1
	.loc 1 1831 22 is_stmt 0
	subq	$100, %rax
	movq	%rax, 112(%r14)
	jmp	.L1362
.LVL781:
	.p2align 4,,10
	.p2align 3
.L1379:
	.loc 1 1838 14
	movl	$1, %r8d
	jmp	.L1365
.LVL782:
	.p2align 4,,10
	.p2align 3
.L1366:
	.loc 1 1842 6
	movq	%r13, %rax
	.loc 1 1841 20
	movl	$3, (%r14)
	.loc 1 1842 6 is_stmt 1
	shrq	$3, %rax
	movzbl	2147450880(%rax), %eax
	testb	%al, %al
	je	.L1367
	cmpb	$3, %al
	jg	.L1367
	movq	%r13, %rdi
	call	__asan_report_load4
.LVL783:
	.p2align 4,,10
	.p2align 3
.L1367:
	movl	704(%rbp), %edi
	movq	%r8, 8(%rsp)
	call	fdwatch_del_fd
.LVL784:
	.loc 1 1846 6
	.loc 1 1846 15 is_stmt 0
	movq	%r12, %rax
	movq	8(%rsp), %r8
	shrq	$3, %rax
	cmpb	$0, 2147450880(%rax)
	jne	.L1505
	movq	8(%r14), %rax
	.loc 1 1846 19
	leaq	200(%rax), %rdi
	movq	%rdi, %rdx
	shrq	$3, %rdx
	cmpb	$0, 2147450880(%rdx)
	jne	.L1506
	.loc 1 1846 35
	movq	16(%rsp), %rdx
	.loc 1 1846 19
	movq	200(%rax), %rax
	.loc 1 1846 35
	shrq	$3, %rdx
	cmpb	$0, 2147450880(%rdx)
	jne	.L1507
	.loc 1 1846 32
	cqto
	.loc 1 1848 12
	leaq	96(%r14), %r12
	.loc 1 1846 32
	idivq	64(%r14)
	.loc 1 1846 47
	movl	%eax, %r13d
	.loc 1 1848 12
	movq	%r12, %rax
	shrq	$3, %rax
	.loc 1 1846 47
	subl	%r8d, %r13d
.LVL785:
	.loc 1 1847 6 is_stmt 1
	.loc 1 1848 6
	.loc 1 1848 12 is_stmt 0
	cmpb	$0, 2147450880(%rax)
	jne	.L1508
	.loc 1 1848 9
	cmpq	$0, 96(%r14)
	je	.L1372
	.loc 1 1849 3 is_stmt 1
	movl	$.LC98, %esi
	movl	$3, %edi
	xorl	%eax, %eax
	call	syslog
.LVL786:
.L1372:
	.loc 1 1850 6
	.loc 1 1850 24 is_stmt 0
	movl	$500, %ecx
	testl	%r13d, %r13d
	jle	.L1373
	.loc 1 1852 23 discriminator 1
	movslq	%r13d, %r13
	.loc 1 1850 24 discriminator 1
	imulq	$1000, %r13, %rcx
.LVL787:
.L1373:
	.loc 1 1850 24 discriminator 4
	movq	(%rsp), %rdi
	xorl	%r8d, %r8d
	movq	%r14, %rdx
	movl	$wakeup_connection, %esi
	call	tmr_create
.LVL788:
	.loc 1 1850 22 discriminator 4
	movq	%r12, %rdx
	shrq	$3, %rdx
	cmpb	$0, 2147450880(%rdx)
	je	.L1338
	.loc 1 1850 22
	movq	%r12, %rdi
	call	__asan_report_store8
.LVL789:
	.p2align 4,,10
	.p2align 3
.L1499:
	.loc 1 1825 2 is_stmt 1
	movq	(%rsp), %rsi
	movq	%r14, %rdi
	call	finish_connection
.LVL790:
	.loc 1 1826 2
	jmp	.L1308
.LVL791:
	.p2align 4,,10
	.p2align 3
.L1504:
.LBB10:
	.loc 1 1803 6
	.loc 1 1804 6
	.loc 1 1804 40 is_stmt 0
	leaq	368(%rbp), %rdi
	.loc 1 1803 35
	subl	%eax, %r9d
.LVL792:
	.loc 1 1804 40
	movq	%rdi, %rax
.LVL793:
	.loc 1 1804 13
	movslq	%r9d, %r9
	.loc 1 1804 40
	shrq	$3, %rax
	cmpb	$0, 2147450880(%rax)
	jne	.L1509
	movq	368(%rbp), %rdi
	.loc 1 1804 13
	movq	%r9, %rdx
	movq	%r10, 32(%rsp)
	movq	%r9, 24(%rsp)
	.loc 1 1804 36
	addq	%rdi, %rsi
.LVL794:
	.loc 1 1804 13
	call	memmove
.LVL795:
	.loc 1 1805 6 is_stmt 1
	.loc 1 1805 22 is_stmt 0
	movq	24(%rsp), %r9
.LBE10:
	xorl	%edx, %edx
	movq	32(%rsp), %r10
.LBB11:
	movq	%r9, 472(%rbp)
	.loc 1 1806 6 is_stmt 1
.LVL796:
.LBE11:
	jmp	.L1346
.LVL797:
.L1472:
	.loc 1 1761 2 is_stmt 0
	movq	%r13, %rdi
	call	__asan_report_load4
.LVL798:
.L1471:
	.loc 1 1760 16
	movq	%r14, %rdi
	call	__asan_report_store4
.LVL799:
.L1495:
	.loc 1 1818 29
	call	__asan_report_load4
.LVL800:
.L1466:
	.loc 1 1726 23
	call	__asan_report_load8
.LVL801:
.L1478:
.LBB12:
	.loc 1 1736 21
	call	__asan_report_load8
.LVL802:
.L1480:
	.loc 1 1737 16
	call	__asan_report_store8
.LVL803:
.L1479:
	.loc 1 1736 17
	movq	%r9, %rdi
	call	__asan_report_store8
.LVL804:
.L1484:
	.loc 1 1739 18
	movq	%rcx, %rdi
	call	__asan_report_load8
.LVL805:
.L1483:
	.loc 1 1738 17
	call	__asan_report_store8
.LVL806:
.L1482:
	.loc 1 1738 39
	movq	%r10, %rdi
	call	__asan_report_load8
.LVL807:
.L1481:
	.loc 1 1738 23
	call	__asan_report_load8
.LVL808:
.L1485:
	.loc 1 1739 16
	call	__asan_report_store8
.LVL809:
.L1465:
.LBE12:
	.loc 1 1727 6
	movq	%r10, %rdi
	call	__asan_report_load8
.LVL810:
.L1464:
	movq	8(%rsp), %rdi
	call	__asan_report_load8
.LVL811:
.L1467:
	.loc 1 1725 7
	movq	%r13, %rdi
	call	__asan_report_load4
.LVL812:
.L1486:
.LBB13:
	.loc 1 1740 7
	movq	%r13, %rdi
	call	__asan_report_load4
.LVL813:
	.p2align 4,,10
	.p2align 3
.L1488:
.LBE13:
	.loc 1 1789 6 is_stmt 1
	leaq	208(%rbp), %rdi
	movq	%rdi, %rax
	shrq	$3, %rax
	cmpb	$0, 2147450880(%rax)
	jne	.L1510
	movq	208(%rbp), %rdx
	movl	$.LC100, %esi
	movl	$3, %edi
	xorl	%eax, %eax
	call	syslog
.LVL814:
	jmp	.L1339
.L1497:
	.loc 1 1819 44 is_stmt 0
	movq	%rsi, %rdi
	call	__asan_report_load8
.LVL815:
.L1496:
	.loc 1 1819 20
	call	__asan_report_load4
.LVL816:
.L1460:
	.loc 1 1708 5
	movl	$96, %edi
.LVL817:
	call	__asan_stack_malloc_1
.LVL818:
	testq	%rax, %rax
	cmovne	%rax, %r15
	jmp	.L1305
.LVL819:
.L1463:
	.loc 1 1722 12
	movq	%r11, %rdi
	call	__asan_report_load8
.LVL820:
.L1490:
	.loc 1 1795 18
	call	__asan_report_store8
.LVL821:
.L1489:
	.loc 1 1795 23
	movq	(%rsp), %rdi
	call	__asan_report_load8
.LVL822:
.L1493:
	.loc 1 1817 6
	movq	%r12, %rdi
	call	__asan_report_load8
.LVL823:
.L1494:
	.loc 1 1817 23
	call	__asan_report_load8
.LVL824:
.L1498:
	.loc 1 1822 33
	movq	8(%rsp), %rdi
	call	__asan_report_load8
.LVL825:
.L1487:
	.loc 1 1743 20
	movq	%rax, %rdi
	call	__asan_report_load4
.LVL826:
.L1462:
	.loc 1 1716 11
	movq	%rcx, %rdi
	call	__asan_report_load8
.LVL827:
.L1470:
	.loc 1 1759 22
	movq	%r12, %rdi
	call	__asan_report_load8
.LVL828:
.L1491:
	.loc 1 1797 12
	movq	%r11, %rdi
	call	__asan_report_load8
.LVL829:
.L1474:
	.loc 1 1765 20
	movq	%r12, %rdi
	call	__asan_report_load8
.LVL830:
.L1475:
	.loc 1 1765 18
	movq	%r13, %rdi
	call	__asan_report_store8
.LVL831:
.L1476:
	.loc 1 1769 6 is_stmt 1
	movl	$2, %edi
	movl	$.LC99, %esi
	xorl	%eax, %eax
	call	syslog
.LVL832:
	.loc 1 1770 6
	call	__asan_handle_no_return
.LVL833:
	movl	$1, %edi
	call	exit
.LVL834:
.L1477:
	.loc 1 1708 5 is_stmt 0
	movabsq	$-723401728380766731, %rax
	movq	$1172321806, (%r15)
	movq	%rax, 2147450880(%rbx)
	movl	$-168430091, 2147450888(%rbx)
	jmp	.L1307
.LVL835:
.L1461:
	.loc 1 1713 17
	movq	%r12, %rdi
	call	__asan_report_load8
.LVL836:
.L1473:
	.loc 1 1763 8
	movq	%r13, %rdi
	call	__asan_report_load8
.LVL837:
.L1492:
	.loc 1 1816 24
	movq	%r10, %rdi
	call	__asan_report_load8
.LVL838:
.L1500:
	.loc 1 1830 11
	call	__asan_report_load8
.LVL839:
.L1502:
	.loc 1 1834 11
	movq	16(%rsp), %rdi
	call	__asan_report_load8
.LVL840:
.L1503:
	.loc 1 1836 27
	call	__asan_report_load8
.LVL841:
.L1509:
.LBB14:
	.loc 1 1804 40
	call	__asan_report_load8
.LVL842:
.L1510:
.LBE14:
	.loc 1 1789 6
	call	__asan_report_load8
.LVL843:
.L1508:
	.loc 1 1848 12
	movq	%r12, %rdi
	call	__asan_report_load8
.LVL844:
.L1507:
	.loc 1 1846 35
	movq	16(%rsp), %rdi
	call	__asan_report_load8
.LVL845:
.L1506:
	.loc 1 1846 19
	call	__asan_report_load8
.LVL846:
.L1505:
	.loc 1 1846 15
	movq	%r12, %rdi
	call	__asan_report_load8
.LVL847:
	.cfi_endproc
.LFE21:
	.size	handle_send, .-handle_send
	.p2align 4,,15
	.type	linger_clear_connection, @function
linger_clear_connection:
.LASANPC31:
.LFB31:
	.loc 1 2119 5 is_stmt 1
	.cfi_startproc
.LVL848:
	pushq	%r13
	.cfi_def_cfa_offset 16
	.cfi_offset 13, -16
	pushq	%r12
	.cfi_def_cfa_offset 24
	.cfi_offset 12, -24
	movq	%rdi, %r12
	pushq	%rbp
	.cfi_def_cfa_offset 32
	.cfi_offset 6, -32
	pushq	%rbx
	.cfi_def_cfa_offset 40
	.cfi_offset 3, -40
	subq	$120, %rsp
	.cfi_def_cfa_offset 160
	movl	__asan_option_detect_stack_use_after_return(%rip), %eax
	leaq	16(%rsp), %rbx
	movq	%rbx, %r13
	testl	%eax, %eax
	jne	.L1518
.LVL849:
.L1511:
	.loc 1 2122 7 is_stmt 0
	leaq	32(%rbx), %rdi
.LVL850:
	.loc 1 2119 5
	movq	%rbx, %rbp
	movq	$1102416563, (%rbx)
	.loc 1 2122 7
	movq	%rdi, %rax
	.loc 1 2119 5
	shrq	$3, %rbp
	movq	$.LC7, 8(%rbx)
	.loc 1 2122 7
	shrq	$3, %rax
	.loc 1 2119 5
	movq	$.LASANPC31, 16(%rbx)
	movl	$-235802127, 2147450880(%rbp)
	movl	$-218959360, 2147450884(%rbp)
	movl	$-202116109, 2147450888(%rbp)
	.loc 1 2122 7
	cmpb	$0, 2147450880(%rax)
.LVL851:
	.loc 1 2118 37
	movq	%r12, 32(%rbx)
	.loc 1 2120 5 is_stmt 1
	.loc 1 2122 5
	.loc 1 2122 7 is_stmt 0
	jne	.L1519
.LVL852:
	.loc 1 2123 5 is_stmt 1
	.loc 1 2123 21 is_stmt 0
	leaq	104(%r12), %rdi
	movq	%rdi, %rax
	shrq	$3, %rax
	cmpb	$0, 2147450880(%rax)
	jne	.L1520
	movq	$0, 104(%r12)
	.loc 1 2124 5 is_stmt 1
	movq	%r12, %rdi
	call	really_clear_connection
.LVL853:
	.loc 1 2119 5 is_stmt 0
	cmpq	%rbx, %r13
	jne	.L1521
	movq	$0, 2147450880(%rbp)
	movl	$0, 2147450888(%rbp)
.L1513:
	.loc 1 2125 5
	addq	$120, %rsp
	.cfi_remember_state
	.cfi_def_cfa_offset 40
	popq	%rbx
	.cfi_def_cfa_offset 32
	popq	%rbp
	.cfi_def_cfa_offset 24
	popq	%r12
	.cfi_def_cfa_offset 16
.LVL854:
	popq	%r13
	.cfi_def_cfa_offset 8
	ret
.LVL855:
.L1518:
	.cfi_restore_state
	.loc 1 2119 5
	movl	$96, %edi
.LVL856:
	movq	%rsi, 8(%rsp)
	call	__asan_stack_malloc_1
.LVL857:
	movq	8(%rsp), %rsi
	testq	%rax, %rax
	cmovne	%rax, %rbx
	jmp	.L1511
.LVL858:
.L1521:
	movabsq	$-723401728380766731, %rax
	movq	$1172321806, (%rbx)
	movq	%rax, 2147450880(%rbp)
	movl	$-168430091, 2147450888(%rbp)
	jmp	.L1513
.L1520:
	.loc 1 2123 21
	call	__asan_report_store8
.LVL859:
.L1519:
	.loc 1 2122 7
	call	__asan_report_load8
.LVL860:
	.cfi_endproc
.LFE31:
	.size	linger_clear_connection, .-linger_clear_connection
	.globl	__asan_stack_malloc_7
	.section	.rodata.str1.1
.LC101:
	.string	"1 32 4096 3 buf "
	.globl	__asan_stack_free_7
	.text
	.p2align 4,,15
	.type	handle_linger, @function
handle_linger:
.LASANPC22:
.LFB22:
	.loc 1 1866 5 is_stmt 1
	.cfi_startproc
.LVL861:
	pushq	%r14
	.cfi_def_cfa_offset 16
	.cfi_offset 14, -16
	movq	%rdi, %r14
	pushq	%r13
	.cfi_def_cfa_offset 24
	.cfi_offset 13, -24
	movq	%rsi, %r13
	pushq	%r12
	.cfi_def_cfa_offset 32
	.cfi_offset 12, -32
	pushq	%rbp
	.cfi_def_cfa_offset 40
	.cfi_offset 6, -40
	pushq	%rbx
	.cfi_def_cfa_offset 48
	.cfi_offset 3, -48
	subq	$4160, %rsp
	.cfi_def_cfa_offset 4208
	movl	__asan_option_detect_stack_use_after_return(%rip), %eax
	movq	%rsp, %rbx
	movq	%rbx, %r12
	testl	%eax, %eax
	jne	.L1545
.LVL862:
.L1522:
	.loc 1 1867 5
	.loc 1 1868 5
	.loc 1 1873 5
	.loc 1 1873 16 is_stmt 0
	leaq	8(%r14), %rdi
	.loc 1 1866 5
	movq	%rbx, %rbp
	movq	$1102416563, (%rbx)
	leaq	4160(%rbx), %rsi
	.loc 1 1873 16
	movq	%rdi, %rax
	.loc 1 1866 5
	shrq	$3, %rbp
	movq	$.LC101, 8(%rbx)
	.loc 1 1873 16
	shrq	$3, %rax
	.loc 1 1866 5
	movq	$.LASANPC22, 16(%rbx)
	movl	$-235802127, 2147450880(%rbp)
	movl	$-202116109, 2147451396(%rbp)
	.loc 1 1873 16
	cmpb	$0, 2147450880(%rax)
	jne	.L1546
	movq	8(%r14), %rax
	.loc 1 1873 9
	leaq	704(%rax), %rdi
	movq	%rdi, %rdx
	shrq	$3, %rdx
	movzbl	2147450880(%rdx), %edx
	testb	%dl, %dl
	je	.L1527
	cmpb	$3, %dl
	jle	.L1547
.L1527:
	movl	704(%rax), %edi
	subq	$4128, %rsi
	movl	$4096, %edx
	call	read
.LVL863:
	.loc 1 1874 5 is_stmt 1
	.loc 1 1874 8 is_stmt 0
	testl	%eax, %eax
	js	.L1548
	.loc 1 1876 5 is_stmt 1
	.loc 1 1876 8 is_stmt 0
	je	.L1531
.LVL864:
.L1525:
	.loc 1 1866 5
	cmpq	%rbx, %r12
	jne	.L1549
	movl	$0, 2147450880(%rbp)
	movl	$0, 2147451396(%rbp)
.L1524:
	.loc 1 1878 5
	addq	$4160, %rsp
	.cfi_remember_state
	.cfi_def_cfa_offset 48
	popq	%rbx
	.cfi_def_cfa_offset 40
	popq	%rbp
	.cfi_def_cfa_offset 32
	popq	%r12
	.cfi_def_cfa_offset 24
	popq	%r13
	.cfi_def_cfa_offset 16
.LVL865:
	popq	%r14
	.cfi_def_cfa_offset 8
.LVL866:
	ret
.LVL867:
	.p2align 4,,10
	.p2align 3
.L1548:
	.cfi_restore_state
	.loc 1 1874 21 discriminator 1
	call	__errno_location
.LVL868:
	movq	%rax, %rdx
	shrq	$3, %rdx
	movzbl	2147450880(%rdx), %ecx
	movq	%rax, %rdx
	andl	$7, %edx
	addl	$3, %edx
	cmpb	%cl, %dl
	jl	.L1529
	testb	%cl, %cl
	jne	.L1550
.L1529:
	movl	(%rax), %eax
	.loc 1 1874 16 discriminator 1
	cmpl	$4, %eax
	je	.L1525
	cmpl	$11, %eax
	je	.L1525
.L1531:
	.loc 1 1877 2 is_stmt 1
	movq	%r13, %rsi
	movq	%r14, %rdi
	call	really_clear_connection
.LVL869:
	.loc 1 1875 2
	jmp	.L1525
.L1547:
	.loc 1 1873 9 is_stmt 0
	call	__asan_report_load4
.LVL870:
.L1546:
	.loc 1 1873 16
	call	__asan_report_load8
.LVL871:
.L1545:
	.loc 1 1866 5
	movl	$4160, %edi
.LVL872:
	call	__asan_stack_malloc_7
.LVL873:
	testq	%rax, %rax
	cmovne	%rax, %rbx
	jmp	.L1522
.L1549:
	movq	$1172321806, (%rbx)
	movq	%r12, %rdx
	movl	$4160, %esi
	movq	%rbx, %rdi
	call	__asan_stack_free_7
.LVL874:
	jmp	.L1524
.L1550:
	.loc 1 1874 21
	movq	%rax, %rdi
	call	__asan_report_load4
.LVL875:
	.cfi_endproc
.LFE22:
	.size	handle_linger, .-handle_linger
	.section	.rodata.str1.8
	.align 8
.LC102:
	.string	"3 32 8 2 ai 96 10 7 portstr 160 48 5 hints "
	.section	.rodata
	.align 32
.LC103:
	.string	"%d"
	.zero	61
	.align 32
.LC104:
	.string	"getaddrinfo %.80s - %.80s"
	.zero	38
	.align 32
.LC105:
	.string	"%s: getaddrinfo %s - %s\n"
	.zero	39
	.align 32
.LC106:
	.string	"%.80s - sockaddr too small (%lu < %lu)"
	.zero	57
	.text
	.p2align 4,,15
	.type	lookup_hostname.constprop.1, @function
lookup_hostname.constprop.1:
.LASANPC37:
.LFB37:
	.loc 1 1235 1 is_stmt 1
	.cfi_startproc
.LVL876:
	pushq	%r15
	.cfi_def_cfa_offset 16
	.cfi_offset 15, -16
	pushq	%r14
	.cfi_def_cfa_offset 24
	.cfi_offset 14, -24
	movq	%rsi, %r14
	pushq	%r13
	.cfi_def_cfa_offset 32
	.cfi_offset 13, -32
	movq	%rcx, %r13
	pushq	%r12
	.cfi_def_cfa_offset 40
	.cfi_offset 12, -40
	pushq	%rbp
	.cfi_def_cfa_offset 48
	.cfi_offset 6, -48
	pushq	%rbx
	.cfi_def_cfa_offset 56
	.cfi_offset 3, -56
	subq	$296, %rsp
	.cfi_def_cfa_offset 352
	movl	__asan_option_detect_stack_use_after_return(%rip), %eax
	movq	%rdi, 8(%rsp)
	leaq	32(%rsp), %rbp
	movq	%rdx, (%rsp)
	testl	%eax, %eax
	jne	.L1646
.LVL877:
.L1551:
	.loc 1 1239 5
	.loc 1 1240 5
	.loc 1 1241 5
	.loc 1 1242 5
	.loc 1 1243 5
	.loc 1 1244 5
	.loc 1 1245 5
	.loc 1 1247 5
	.loc 1 1235 1 is_stmt 0
	movq	%rbp, %rbx
	movq	$1102416563, 0(%rbp)
.LVL878:
	.loc 1 1247 12
	leaq	160(%rbp), %r12
	leaq	164(%rbp), %rdi
	.loc 1 1235 1
	shrq	$3, %rbx
	movq	$.LC102, 8(%rbp)
	.loc 1 1247 12
	movl	$44, %edx
	xorl	%esi, %esi
	.loc 1 1235 1
	movq	$.LASANPC37, 16(%rbp)
	leaq	256(%rbp), %r15
	movl	$-235802127, 2147450880(%rbx)
	movl	$-218959360, 2147450884(%rbx)
	movl	$-218959118, 2147450888(%rbx)
	movl	$-219020800, 2147450892(%rbx)
	movl	$-218959118, 2147450896(%rbx)
	movl	$-219021312, 2147450904(%rbx)
	movl	$-202116109, 2147450908(%rbx)
	.loc 1 1247 12
	call	memset
.LVL879:
	.loc 1 1248 5 is_stmt 1
	.loc 1 1249 5
	.loc 1 1249 20 is_stmt 0
	movq	%r12, %rax
	shrq	$3, %rax
	movzbl	2147450880(%rax), %eax
	testb	%al, %al
	je	.L1555
	cmpb	$3, %al
	jle	.L1647
.L1555:
	.loc 1 1250 23
	leaq	-96(%r15), %r10
	.loc 1 1249 20
	movl	$1, -96(%r15)
	.loc 1 1250 5 is_stmt 1
	.loc 1 1250 23 is_stmt 0
	leaq	8(%r10), %rdi
	movq	%rdi, %rax
	shrq	$3, %rax
	movzbl	2147450880(%rax), %eax
	testb	%al, %al
	je	.L1556
	cmpb	$3, %al
	jle	.L1648
.L1556:
	.loc 1 1251 12
	leaq	-160(%r15), %r9
	movzwl	port(%rip), %ecx
	movl	$.LC103, %edx
	xorl	%eax, %eax
	movq	%r9, %rdi
	movl	$10, %esi
	movq	%r10, 24(%rsp)
	.loc 1 1252 20
	leaq	-224(%r15), %r12
	.loc 1 1251 12
	movq	%r9, 16(%rsp)
	.loc 1 1250 23
	movl	$1, -88(%r15)
	.loc 1 1251 5 is_stmt 1
	.loc 1 1251 12 is_stmt 0
	call	snprintf
.LVL880:
	.loc 1 1252 5 is_stmt 1
	.loc 1 1252 20 is_stmt 0
	movq	24(%rsp), %r10
	movq	16(%rsp), %r9
	movq	%r12, %rcx
	movq	hostname(%rip), %rdi
	movq	%r10, %rdx
	movq	%r9, %rsi
	call	getaddrinfo
.LVL881:
	.loc 1 1252 8
	testl	%eax, %eax
	jne	.L1649
	.loc 1 1264 5 is_stmt 1
.LVL882:
	.loc 1 1265 5
	.loc 1 1266 5
	.loc 1 1266 15 is_stmt 0
	movq	%r12, %rax
.LVL883:
	shrq	$3, %rax
	cmpb	$0, 2147450880(%rax)
	jne	.L1650
	movq	-224(%r15), %r12
.LVL884:
	.loc 1 1264 10
	xorl	%ecx, %ecx
	.loc 1 1265 10
	xorl	%r15d, %r15d
	.loc 1 1266 5
	movq	%r12, %rax
	testq	%r12, %r12
	jne	.L1560
	jmp	.L1651
.LVL885:
	.p2align 4,,10
	.p2align 3
.L1655:
	cmpl	$10, %edx
	jne	.L1565
	.loc 1 1271 6 is_stmt 1
	.loc 1 1271 9 is_stmt 0
	testq	%rcx, %rcx
	cmove	%rax, %rcx
.LVL886:
.L1565:
	.loc 1 1266 54
	leaq	40(%rax), %rdi
	movq	%rdi, %rdx
	shrq	$3, %rdx
	cmpb	$0, 2147450880(%rdx)
	jne	.L1652
	movq	40(%rax), %rax
.LVL887:
	.loc 1 1266 5
	testq	%rax, %rax
	je	.L1653
.LVL888:
.L1560:
	.loc 1 1268 2 is_stmt 1
	.loc 1 1268 14 is_stmt 0
	leaq	4(%rax), %rdi
	movq	%rdi, %rdx
	shrq	$3, %rdx
	movzbl	2147450880(%rdx), %esi
	movq	%rdi, %rdx
	andl	$7, %edx
	addl	$3, %edx
	cmpb	%sil, %dl
	jl	.L1563
	testb	%sil, %sil
	jne	.L1654
.L1563:
	movl	4(%rax), %edx
	cmpl	$2, %edx
	jne	.L1655
	.loc 1 1275 6 is_stmt 1
	.loc 1 1275 9 is_stmt 0
	testq	%r15, %r15
	cmove	%rax, %r15
.LVL889:
	jmp	.L1565
.LVL890:
	.p2align 4,,10
	.p2align 3
.L1653:
	.loc 1 1281 5 is_stmt 1
	.loc 1 1281 8 is_stmt 0
	testq	%rcx, %rcx
	je	.L1656
	.loc 1 1285 2 is_stmt 1
	.loc 1 1285 21 is_stmt 0
	leaq	16(%rcx), %rdi
	movq	%rdi, %rax
.LVL891:
	shrq	$3, %rax
	movzbl	2147450880(%rax), %eax
	testb	%al, %al
	je	.L1570
	cmpb	$3, %al
	jle	.L1657
.L1570:
	movl	16(%rcx), %r8d
	.loc 1 1285 5
	cmpq	$128, %r8
	ja	.L1645
	.loc 1 1293 9
	movq	(%rsp), %rdi
	movl	$128, %edx
	xorl	%esi, %esi
	movq	%rcx, 16(%rsp)
	.loc 1 1293 2 is_stmt 1
	.loc 1 1293 9 is_stmt 0
	call	memset
.LVL892:
	.loc 1 1294 2 is_stmt 1
	.loc 1 1294 9 is_stmt 0
	movq	16(%rsp), %rcx
	.loc 1 1294 28
	leaq	24(%rcx), %rdi
	.loc 1 1294 9
	movl	16(%rcx), %edx
	.loc 1 1294 28
	movq	%rdi, %rax
	shrq	$3, %rax
	cmpb	$0, 2147450880(%rax)
	jne	.L1658
	.loc 1 1294 9
	movq	24(%rcx), %rsi
	movq	(%rsp), %rdi
	call	memmove
.LVL893:
	.loc 1 1295 2 is_stmt 1
	.loc 1 1295 10 is_stmt 0
	movq	%r13, %rax
	shrq	$3, %rax
	movzbl	2147450880(%rax), %eax
	testb	%al, %al
	je	.L1573
	cmpb	$3, %al
	jle	.L1659
.L1573:
	movl	$1, 0(%r13)
.LVL894:
.L1569:
	.loc 1 1298 5 is_stmt 1
	.loc 1 1298 8 is_stmt 0
	testq	%r15, %r15
	je	.L1562
	.loc 1 1302 2 is_stmt 1
	.loc 1 1302 21 is_stmt 0
	leaq	16(%r15), %rdi
	movq	%rdi, %rax
	shrq	$3, %rax
	movzbl	2147450880(%rax), %eax
	testb	%al, %al
	je	.L1577
	cmpb	$3, %al
	jle	.L1660
.L1577:
	movl	16(%r15), %r8d
	.loc 1 1302 5
	cmpq	$128, %r8
	ja	.L1645
	.loc 1 1310 2 is_stmt 1
	.loc 1 1310 9 is_stmt 0
	movq	8(%rsp), %rdi
	movl	$128, %edx
	xorl	%esi, %esi
	call	memset
.LVL895:
	.loc 1 1311 2 is_stmt 1
	.loc 1 1311 28 is_stmt 0
	leaq	24(%r15), %rdi
	.loc 1 1311 9
	movl	16(%r15), %edx
	.loc 1 1311 28
	movq	%rdi, %rax
	shrq	$3, %rax
	cmpb	$0, 2147450880(%rax)
	jne	.L1661
	.loc 1 1311 9
	movq	24(%r15), %rsi
	movq	8(%rsp), %rdi
	call	memmove
.LVL896:
	.loc 1 1312 2 is_stmt 1
	.loc 1 1312 10 is_stmt 0
	movq	%r14, %rax
	shrq	$3, %rax
	movzbl	2147450880(%rax), %eax
	testb	%al, %al
	je	.L1580
	cmpb	$3, %al
	jle	.L1662
.L1580:
	movl	$1, (%r14)
.LVL897:
.L1576:
	.loc 1 1315 5 is_stmt 1
	movq	%r12, %rdi
	call	freeaddrinfo
.LVL898:
	.loc 1 1235 1 is_stmt 0
	leaq	32(%rsp), %rax
	cmpq	%rbp, %rax
	jne	.L1663
	movl	$0, 2147450896(%rbx)
	pxor	%xmm0, %xmm0
	movq	$0, 2147450904(%rbx)
	movups	%xmm0, 2147450880(%rbx)
.L1553:
	.loc 1 1365 5
	addq	$296, %rsp
	.cfi_remember_state
	.cfi_def_cfa_offset 56
	popq	%rbx
	.cfi_def_cfa_offset 48
	popq	%rbp
	.cfi_def_cfa_offset 40
	popq	%r12
	.cfi_def_cfa_offset 32
	popq	%r13
	.cfi_def_cfa_offset 24
.LVL899:
	popq	%r14
	.cfi_def_cfa_offset 16
.LVL900:
	popq	%r15
	.cfi_def_cfa_offset 8
	ret
.LVL901:
.L1651:
	.cfi_restore_state
	.loc 1 1282 2 is_stmt 1
	.loc 1 1282 10 is_stmt 0
	movq	%r13, %rax
.LVL902:
	shrq	$3, %rax
	movzbl	2147450880(%rax), %eax
	testb	%al, %al
	je	.L1561
	cmpb	$3, %al
	jle	.L1664
.L1561:
	movl	$0, 0(%r13)
	.loc 1 1298 5 is_stmt 1
.LVL903:
.L1562:
	.loc 1 1299 2
	.loc 1 1299 10 is_stmt 0
	movq	%r14, %rax
	shrq	$3, %rax
	movzbl	2147450880(%rax), %eax
	testb	%al, %al
	je	.L1575
	cmpb	$3, %al
	jle	.L1665
.L1575:
	movl	$0, (%r14)
	jmp	.L1576
.LVL904:
.L1656:
	.loc 1 1282 2 is_stmt 1
	.loc 1 1282 10 is_stmt 0
	movq	%r13, %rax
.LVL905:
	shrq	$3, %rax
	movzbl	2147450880(%rax), %eax
	testb	%al, %al
	je	.L1568
	cmpb	$3, %al
	jle	.L1666
.L1568:
	movl	$0, 0(%r13)
	jmp	.L1569
.LVL906:
.L1647:
	.loc 1 1249 20
	movq	%r12, %rdi
	call	__asan_report_store4
.LVL907:
.L1648:
	.loc 1 1250 23
	call	__asan_report_store4
.LVL908:
.L1652:
	.loc 1 1266 54
	call	__asan_report_load8
.LVL909:
.L1654:
	.loc 1 1268 14
	call	__asan_report_load4
.LVL910:
.L1650:
	.loc 1 1266 15
	movq	%r12, %rdi
	call	__asan_report_load8
.LVL911:
.L1646:
	.loc 1 1235 1
	movl	$256, %edi
.LVL912:
	call	__asan_stack_malloc_2
.LVL913:
	testq	%rax, %rax
	cmovne	%rax, %rbp
	jmp	.L1551
.LVL914:
.L1663:
	movdqa	.LC46(%rip), %xmm0
	movq	$1172321806, 0(%rbp)
	movups	%xmm0, 2147450880(%rbx)
	movups	%xmm0, 2147450896(%rbx)
	jmp	.L1553
.LVL915:
.L1645:
	.loc 1 1304 6 is_stmt 1
	movq	hostname(%rip), %rdx
	movl	$2, %edi
	movl	$128, %ecx
	xorl	%eax, %eax
	movl	$.LC106, %esi
	call	syslog
.LVL916:
	.loc 1 1308 6
	call	__asan_handle_no_return
.LVL917:
	movl	$1, %edi
	call	exit
.LVL918:
.L1665:
	.loc 1 1299 10 is_stmt 0
	movq	%r14, %rdi
	call	__asan_report_store4
.LVL919:
.L1666:
	.loc 1 1282 10
	movq	%r13, %rdi
.LVL920:
	call	__asan_report_store4
.LVL921:
.L1664:
	movq	%r13, %rdi
	call	__asan_report_store4
.LVL922:
.L1657:
	.loc 1 1285 21
	call	__asan_report_load4
.LVL923:
.L1660:
	.loc 1 1302 21
	call	__asan_report_load4
.LVL924:
.L1659:
	.loc 1 1295 10
	movq	%r13, %rdi
	call	__asan_report_store4
.LVL925:
.L1649:
	.loc 1 1254 2 is_stmt 1
	movl	%eax, %edi
	movl	%eax, (%rsp)
	call	gai_strerror
.LVL926:
	movl	$.LC104, %esi
	movl	$2, %edi
	movq	hostname(%rip), %rdx
	movq	%rax, %rcx
	xorl	%eax, %eax
	call	syslog
.LVL927:
	.loc 1 1257 2
	.loc 1 1257 9 is_stmt 0
	movl	(%rsp), %r9d
	movl	%r9d, %edi
	call	gai_strerror
.LVL928:
	movl	$stderr, %esi
	.loc 1 1257 2
	movq	hostname(%rip), %rcx
	movq	argv0(%rip), %rdx
	.loc 1 1257 9
	shrq	$3, %rsi
	movq	%rax, %r8
	cmpb	$0, 2147450880(%rsi)
	jne	.L1667
	movq	stderr(%rip), %rdi
	movl	$.LC105, %esi
	xorl	%eax, %eax
	call	fprintf
.LVL929:
	.loc 1 1260 2 is_stmt 1
	call	__asan_handle_no_return
.LVL930:
	movl	$1, %edi
	call	exit
.LVL931:
.L1661:
	.loc 1 1311 28 is_stmt 0
	call	__asan_report_load8
.LVL932:
.L1667:
	.loc 1 1257 9
	movl	$stderr, %edi
	call	__asan_report_load8
.LVL933:
.L1658:
	.loc 1 1294 28
	call	__asan_report_load8
.LVL934:
.L1662:
	.loc 1 1312 10
	movq	%r14, %rdi
	call	__asan_report_store4
.LVL935:
	.cfi_endproc
.LFE37:
	.size	lookup_hostname.constprop.1, .-lookup_hostname.constprop.1
	.section	.rodata.str1.8
	.align 8
.LC107:
	.string	"6 32 4 5 gotv4 96 4 5 gotv6 160 16 2 tv 224 128 3 sa4 384 128 3 sa6 544 4097 3 cwd "
	.section	.rodata
	.align 32
.LC108:
	.string	"can't find any valid address"
	.zero	35
	.align 32
.LC109:
	.string	"%s: can't find any valid address\n"
	.zero	62
	.align 32
.LC110:
	.string	"unknown user - '%.80s'"
	.zero	41
	.align 32
.LC111:
	.string	"%s: unknown user - '%s'\n"
	.zero	39
	.align 32
.LC112:
	.string	"/dev/null"
	.zero	54
	.align 32
.LC113:
	.string	"logfile is not an absolute path, you may not be able to re-open it"
	.zero	61
	.align 32
.LC114:
	.string	"%s: logfile is not an absolute path, you may not be able to re-open it\n"
	.zero	56
	.align 32
.LC115:
	.string	"fchown logfile - %m"
	.zero	44
	.align 32
.LC116:
	.string	"fchown logfile"
	.zero	49
	.align 32
.LC117:
	.string	"chdir - %m"
	.zero	53
	.align 32
.LC118:
	.string	"chdir"
	.zero	58
	.align 32
.LC119:
	.string	"/"
	.zero	62
	.align 32
.LC120:
	.string	"daemon - %m"
	.zero	52
	.align 32
.LC121:
	.string	"w"
	.zero	62
	.align 32
.LC122:
	.string	"%d\n"
	.zero	60
	.align 32
.LC123:
	.string	"fdwatch initialization failure"
	.zero	33
	.align 32
.LC124:
	.string	"chroot - %m"
	.zero	52
	.align 32
.LC125:
	.string	"logfile is not within the chroot tree, you will not be able to re-open it"
	.zero	54
	.align 32
.LC126:
	.string	"%s: logfile is not within the chroot tree, you will not be able to re-open it\n"
	.zero	49
	.align 32
.LC127:
	.string	"chroot chdir - %m"
	.zero	46
	.align 32
.LC128:
	.string	"chroot chdir"
	.zero	51
	.align 32
.LC129:
	.string	"data_dir chdir - %m"
	.zero	44
	.align 32
.LC130:
	.string	"data_dir chdir"
	.zero	49
	.align 32
.LC131:
	.string	"tmr_create(occasional) failed"
	.zero	34
	.align 32
.LC132:
	.string	"tmr_create(idle) failed"
	.zero	40
	.align 32
.LC133:
	.string	"tmr_create(update_throttles) failed"
	.zero	60
	.align 32
.LC134:
	.string	"tmr_create(show_stats) failed"
	.zero	34
	.align 32
.LC135:
	.string	"setgroups - %m"
	.zero	49
	.align 32
.LC136:
	.string	"setgid - %m"
	.zero	52
	.align 32
.LC137:
	.string	"initgroups - %m"
	.zero	48
	.align 32
.LC138:
	.string	"setuid - %m"
	.zero	52
	.align 32
.LC139:
	.string	"started as root without requesting chroot(), warning only"
	.zero	38
	.align 32
.LC140:
	.string	"out of memory allocating a connecttab"
	.zero	58
	.align 32
.LC141:
	.string	"fdwatch - %m"
	.zero	51
	.section	.text.startup,"ax",@progbits
	.p2align 4,,15
	.globl	main
	.type	main, @function
main:
.LASANPC9:
.LFB9:
	.loc 1 353 5 is_stmt 1
	.cfi_startproc
.LVL936:
	pushq	%r15
	.cfi_def_cfa_offset 16
	.cfi_offset 15, -16
	pushq	%r14
	.cfi_def_cfa_offset 24
	.cfi_offset 14, -24
	movl	%edi, %r14d
	pushq	%r13
	.cfi_def_cfa_offset 32
	.cfi_offset 13, -32
	movq	%rsi, %r13
	pushq	%r12
	.cfi_def_cfa_offset 40
	.cfi_offset 12, -40
	pushq	%rbp
	.cfi_def_cfa_offset 48
	.cfi_offset 6, -48
	pushq	%rbx
	.cfi_def_cfa_offset 56
	.cfi_offset 3, -56
	subq	$4776, %rsp
	.cfi_def_cfa_offset 4832
	movl	__asan_option_detect_stack_use_after_return(%rip), %eax
	leaq	64(%rsp), %rbx
	testl	%eax, %eax
	jne	.L1971
.LVL937:
.L1668:
	.loc 1 354 5
	.loc 1 355 5
	.loc 1 356 5
	.loc 1 357 5
	.loc 1 358 5
	.loc 1 359 5
	.loc 1 360 5
	.loc 1 361 5
	.loc 1 362 5
	.loc 1 363 5
	.loc 1 364 5
	.loc 1 365 5
	.loc 1 366 5
	.loc 1 367 5
	.loc 1 368 5
	.loc 1 370 5
	.loc 1 353 5 is_stmt 0
	movq	%rbx, %rax
	movq	$1102416563, (%rbx)
	leaq	4704(%rbx), %rbp
	shrq	$3, %rax
	movq	$.LC107, 8(%rbx)
	movq	$.LASANPC9, 16(%rbx)
	movl	$-235802127, 2147450880(%rax)
	movl	$-218959356, 2147450884(%rax)
	movl	$-218959118, 2147450888(%rax)
	movl	$-218959356, 2147450892(%rax)
	movl	$-218959118, 2147450896(%rax)
	movl	$-219021312, 2147450900(%rax)
	movl	$-218959118, 2147450904(%rax)
	movl	$-218959118, 2147450924(%rax)
	movl	$-218959118, 2147450944(%rax)
	movl	$-218959359, 2147451460(%rax)
	movl	$-202116109, 2147451464(%rax)
	.loc 1 370 17
	movq	%r13, %rax
	shrq	$3, %rax
	cmpb	$0, 2147450880(%rax)
	jne	.L1972
	movq	0(%r13), %r12
	.loc 1 372 10
	movl	$47, %esi
	.loc 1 386 5
	leaq	384(%rbx), %r15
	.loc 1 372 10
	movq	%r12, %rdi
	.loc 1 370 11
	movq	%r12, argv0(%rip)
	.loc 1 372 5 is_stmt 1
	.loc 1 372 10 is_stmt 0
	call	strrchr
.LVL938:
	.loc 1 373 5 is_stmt 1
	.loc 1 377 5 is_stmt 0
	movl	$9, %esi
	.loc 1 374 2
	testq	%rax, %rax
	leaq	1(%rax), %rdx
	cmovne	%rdx, %r12
.LVL939:
	.loc 1 377 5 is_stmt 1
	movl	$24, %edx
	movq	%r12, %rdi
	call	openlog
.LVL940:
	.loc 1 380 5
	movq	%r13, %rsi
	movl	%r14d, %edi
	.loc 1 386 5 is_stmt 0
	leaq	32(%rbx), %r13
.LVL941:
	.loc 1 380 5
	call	parse_args
.LVL942:
	.loc 1 383 5 is_stmt 1
	.loc 1 386 5 is_stmt 0
	leaq	96(%rbx), %r14
.LVL943:
	addq	$224, %rbx
	.loc 1 383 5
	call	tzset
.LVL944:
	.loc 1 386 5 is_stmt 1
	movq	%r14, %rcx
	movq	%r15, %rdx
	movq	%r13, %rsi
	movq	%rbx, %rdi
	call	lookup_hostname.constprop.1
.LVL945:
	.loc 1 387 5
	.loc 1 387 14 is_stmt 0
	movq	%r13, %rax
	shrq	$3, %rax
	movzbl	2147450880(%rax), %eax
	testb	%al, %al
	je	.L1674
	cmpb	$3, %al
	jle	.L1973
.L1674:
	.loc 1 387 20
	movq	%r14, %rax
	.loc 1 387 14
	movl	-4672(%rbp), %edx
	.loc 1 387 20
	shrq	$3, %rax
	movzbl	2147450880(%rax), %eax
	testb	%al, %al
	je	.L1675
	cmpb	$3, %al
	jle	.L1974
.L1675:
	.loc 1 387 10
	orl	-4608(%rbp), %edx
	je	.L1975
	.loc 1 395 5 is_stmt 1
	.loc 1 398 23 is_stmt 0
	movq	throttlefile(%rip), %rdi
	.loc 1 395 18
	movl	$0, numthrottles(%rip)
	.loc 1 396 5 is_stmt 1
	.loc 1 396 18 is_stmt 0
	movl	$0, maxthrottles(%rip)
	.loc 1 397 5 is_stmt 1
	.loc 1 397 15 is_stmt 0
	movq	$0, throttles(%rip)
	.loc 1 398 5 is_stmt 1
	.loc 1 398 8 is_stmt 0
	testq	%rdi, %rdi
	je	.L1678
	.loc 1 399 2 is_stmt 1
	call	read_throttlefile
.LVL946:
.L1678:
	.loc 1 404 5
	.loc 1 404 10 is_stmt 0
	call	getuid
.LVL947:
	.loc 1 357 11
	movl	$32767, 20(%rsp)
	.loc 1 356 11
	movl	$32767, 40(%rsp)
	.loc 1 404 8
	testl	%eax, %eax
	je	.L1976
.LVL948:
.L1679:
	.loc 1 418 5 is_stmt 1
	.loc 1 418 18 is_stmt 0
	movq	logfile(%rip), %r12
.LVL949:
	.loc 1 418 8
	testq	%r12, %r12
	je	.L1778
	.loc 1 420 2 is_stmt 1
	.loc 1 420 7 is_stmt 0
	movl	$.LC112, %esi
	movq	%r12, %rdi
	call	strcmp
.LVL950:
	.loc 1 420 5
	testl	%eax, %eax
	jne	.L1685
	.loc 1 422 6 is_stmt 1
	.loc 1 422 13 is_stmt 0
	movl	$1, no_log(%rip)
	.loc 1 423 6 is_stmt 1
.LVL951:
	.loc 1 423 12 is_stmt 0
	movq	$0, 8(%rsp)
.LVL952:
.L1684:
	.loc 1 460 5 is_stmt 1
	.loc 1 460 14 is_stmt 0
	movq	dir(%rip), %rdi
	.loc 1 460 8
	testq	%rdi, %rdi
	je	.L1693
	.loc 1 462 2 is_stmt 1
	.loc 1 462 7 is_stmt 0
	call	chdir
.LVL953:
	.loc 1 462 5
	testl	%eax, %eax
	js	.L1977
.L1693:
	.loc 1 486 5 is_stmt 1
	.loc 1 486 12 is_stmt 0
	leaq	-4160(%rbp), %r12
	movl	$4096, %esi
	movq	%r12, %rdi
	call	getcwd
.LVL954:
	.loc 1 487 5 is_stmt 1
	.loc 1 487 14 is_stmt 0
	movq	%r12, %rdi
	call	strlen
.LVL955:
	.loc 1 487 28
	leaq	-1(%rax), %rdx
	.loc 1 487 13
	leaq	(%r12,%rdx), %rdi
	movq	%rdi, %rcx
	movq	%rdi, %rsi
	shrq	$3, %rcx
	andl	$7, %esi
	movzbl	2147450880(%rcx), %ecx
	cmpb	%sil, %cl
	jg	.L1694
	testb	%cl, %cl
	jne	.L1978
.L1694:
	.loc 1 487 8
	cmpb	$47, -4160(%rdx,%rbp)
	je	.L1695
	.loc 1 488 2 is_stmt 1
	.loc 1 488 9 is_stmt 0
	leaq	(%r12,%rax), %rdi
	movl	$2, %edx
	movl	$.LC119, %esi
	call	memcpy
.LVL956:
.L1695:
	.loc 1 490 5 is_stmt 1
	.loc 1 490 8 is_stmt 0
	cmpl	$0, debug(%rip)
	jne	.L1696
	.loc 1 495 2 is_stmt 1
	.loc 1 495 9 is_stmt 0
	movl	$stdin, %eax
	shrq	$3, %rax
	cmpb	$0, 2147450880(%rax)
	jne	.L1979
	movq	stdin(%rip), %rdi
	call	fclose
.LVL957:
	.loc 1 496 2 is_stmt 1
	.loc 1 496 13 is_stmt 0
	movl	$stdout, %eax
	shrq	$3, %rax
	cmpb	$0, 2147450880(%rax)
	jne	.L1980
	movq	stdout(%rip), %rdi
	.loc 1 496 5
	cmpq	8(%rsp), %rdi
	je	.L1699
	.loc 1 497 6 is_stmt 1
	.loc 1 497 13 is_stmt 0
	call	fclose
.LVL958:
.L1699:
	.loc 1 498 2 is_stmt 1
	.loc 1 498 9 is_stmt 0
	movl	$stderr, %eax
	shrq	$3, %rax
	cmpb	$0, 2147450880(%rax)
	jne	.L1981
	movq	stderr(%rip), %rdi
	call	fclose
.LVL959:
	.loc 1 502 2 is_stmt 1
	.loc 1 502 7 is_stmt 0
	movl	$1, %esi
	movl	$1, %edi
	call	daemon
.LVL960:
	.loc 1 504 6
	movl	$.LC120, %esi
	.loc 1 502 5
	testl	%eax, %eax
	js	.L1967
.L1701:
	.loc 1 533 5 is_stmt 1
	.loc 1 533 18 is_stmt 0
	movq	pidfile(%rip), %rdi
	.loc 1 533 8
	testq	%rdi, %rdi
	je	.L1702
.LBB15:
	.loc 1 536 2 is_stmt 1
	.loc 1 536 16 is_stmt 0
	movl	$.LC121, %esi
	call	fopen
.LVL961:
	.loc 1 537 2 is_stmt 1
	.loc 1 537 5 is_stmt 0
	testq	%rax, %rax
	je	.L1982
	movq	%rax, 24(%rsp)
	.loc 1 542 2 is_stmt 1
	.loc 1 542 39 is_stmt 0
	call	getpid
.LVL962:
	.loc 1 542 9
	movq	24(%rsp), %rcx
	movl	$.LC122, %esi
	movl	%eax, %edx
	xorl	%eax, %eax
	movq	%rcx, %rdi
	call	fprintf
.LVL963:
	.loc 1 543 2 is_stmt 1
	.loc 1 543 9 is_stmt 0
	movq	24(%rsp), %rcx
	movq	%rcx, %rdi
	call	fclose
.LVL964:
.L1702:
.LBE15:
	.loc 1 549 5 is_stmt 1
	.loc 1 549 20 is_stmt 0
	call	fdwatch_get_nfiles
.LVL965:
	.loc 1 549 18
	movl	%eax, max_connects(%rip)
	.loc 1 550 5 is_stmt 1
	.loc 1 550 8 is_stmt 0
	testl	%eax, %eax
	js	.L1983
	.loc 1 555 5 is_stmt 1
	.loc 1 555 18 is_stmt 0
	subl	$10, %eax
	.loc 1 558 8
	cmpl	$0, do_chroot(%rip)
	.loc 1 555 18
	movl	%eax, max_connects(%rip)
	.loc 1 558 5 is_stmt 1
	.loc 1 558 8 is_stmt 0
	jne	.L1984
.L1705:
	.loc 1 598 5 is_stmt 1
	.loc 1 598 19 is_stmt 0
	movq	data_dir(%rip), %rdi
	.loc 1 598 8
	testq	%rdi, %rdi
	je	.L1710
	.loc 1 600 2 is_stmt 1
	.loc 1 600 7 is_stmt 0
	call	chdir
.LVL966:
	.loc 1 600 5
	testl	%eax, %eax
	js	.L1985
.L1710:
	.loc 1 610 5 is_stmt 1
	.loc 1 610 12 is_stmt 0
	movl	$handle_term, %esi
	movl	$15, %edi
	xorl	%eax, %eax
	call	sigset
.LVL967:
	.loc 1 611 5 is_stmt 1
	.loc 1 611 12 is_stmt 0
	movl	$handle_term, %esi
	movl	$2, %edi
	xorl	%eax, %eax
	call	sigset
.LVL968:
	.loc 1 612 5 is_stmt 1
	.loc 1 612 12 is_stmt 0
	movl	$handle_chld, %esi
	movl	$17, %edi
	xorl	%eax, %eax
	call	sigset
.LVL969:
	.loc 1 613 5 is_stmt 1
	.loc 1 613 12 is_stmt 0
	movl	$1, %esi
	movl	$13, %edi
	xorl	%eax, %eax
	call	sigset
.LVL970:
	.loc 1 614 5 is_stmt 1
	.loc 1 614 12 is_stmt 0
	movl	$handle_hup, %esi
	movl	$1, %edi
	xorl	%eax, %eax
	call	sigset
.LVL971:
	.loc 1 615 5 is_stmt 1
	.loc 1 615 12 is_stmt 0
	movl	$handle_usr1, %esi
	movl	$10, %edi
	xorl	%eax, %eax
	call	sigset
.LVL972:
	.loc 1 616 5 is_stmt 1
	.loc 1 616 12 is_stmt 0
	movl	$handle_usr2, %esi
	movl	$12, %edi
	xorl	%eax, %eax
	call	sigset
.LVL973:
	.loc 1 617 5 is_stmt 1
	.loc 1 617 12 is_stmt 0
	movl	$handle_alrm, %esi
	movl	$14, %edi
	xorl	%eax, %eax
	call	sigset
.LVL974:
	.loc 1 628 5 is_stmt 1
	.loc 1 631 12 is_stmt 0
	movl	$360, %edi
	.loc 1 628 13
	movl	$0, got_hup(%rip)
	.loc 1 629 5 is_stmt 1
	.loc 1 629 14 is_stmt 0
	movl	$0, got_usr1(%rip)
	.loc 1 630 5 is_stmt 1
	.loc 1 630 19 is_stmt 0
	movl	$0, watchdog_flag(%rip)
	.loc 1 631 5 is_stmt 1
	.loc 1 631 12 is_stmt 0
	call	alarm
.LVL975:
	.loc 1 634 5 is_stmt 1
	call	tmr_init
.LVL976:
	.loc 1 639 5
	.loc 1 639 10 is_stmt 0
	movl	do_global_passwd(%rip), %eax
	.loc 1 641 44
	movq	%r14, %rdx
	.loc 1 639 10
	movl	no_empty_referers(%rip), %r11d
	.loc 1 641 44
	shrq	$3, %rdx
	.loc 1 639 10
	movq	local_pattern(%rip), %r10
	movq	url_pattern(%rip), %rdi
	movl	%eax, 24(%rsp)
	movl	do_vhost(%rip), %eax
	.loc 1 641 44
	movzbl	2147450880(%rdx), %edx
	.loc 1 639 10
	movl	cgi_limit(%rip), %r9d
	movl	%eax, 32(%rsp)
	movl	no_symlink_check(%rip), %eax
	movq	cgi_pattern(%rip), %r8
	movzwl	port(%rip), %ecx
	movl	%eax, 44(%rsp)
	movl	no_log(%rip), %eax
	movl	%eax, 48(%rsp)
	movl	max_age(%rip), %eax
	movl	%eax, 52(%rsp)
	movq	p3p(%rip), %rax
	movq	%rax, 56(%rsp)
	movq	charset(%rip), %rax
	.loc 1 641 44
	testb	%dl, %dl
	je	.L1711
	cmpb	$3, %dl
	jle	.L1986
.L1711:
	.loc 1 639 10
	cmpl	$0, -4608(%rbp)
	movl	$0, %edx
	.loc 1 641 8
	movq	%r13, %rsi
	.loc 1 639 10
	cmovne	%r15, %rdx
	.loc 1 641 8
	shrq	$3, %rsi
	movzbl	2147450880(%rsi), %esi
	testb	%sil, %sil
	je	.L1713
	.loc 1 641 8 discriminator 4
	cmpb	$3, %sil
	jle	.L1987
.L1713:
	.loc 1 639 10 discriminator 4
	cmpl	$0, -4672(%rbp)
	movl	$0, %esi
	pushq	%r11
	.cfi_def_cfa_offset 4840
	cmovne	%rbx, %rsi
	pushq	%r10
	.cfi_def_cfa_offset 4848
	pushq	%rdi
	.cfi_def_cfa_offset 4856
	movl	48(%rsp), %ebx
	movq	hostname(%rip), %rdi
	pushq	%rbx
	.cfi_def_cfa_offset 4864
	movl	64(%rsp), %ebx
	pushq	%rbx
	.cfi_def_cfa_offset 4872
	movl	84(%rsp), %ebx
	pushq	%rbx
	.cfi_def_cfa_offset 4880
	pushq	56(%rsp)
	.cfi_def_cfa_offset 4888
	movl	104(%rsp), %ebx
	pushq	%rbx
	.cfi_def_cfa_offset 4896
	pushq	%r12
	.cfi_def_cfa_offset 4904
	movl	124(%rsp), %ebx
	pushq	%rbx
	.cfi_def_cfa_offset 4912
	pushq	136(%rsp)
	.cfi_def_cfa_offset 4920
	pushq	%rax
	.cfi_def_cfa_offset 4928
	call	httpd_initialize
.LVL977:
	.loc 1 645 8 discriminator 4
	addq	$96, %rsp
	.cfi_def_cfa_offset 4832
	.loc 1 639 8 discriminator 4
	movq	%rax, hs(%rip)
	.loc 1 645 5 is_stmt 1 discriminator 4
	.loc 1 645 8 is_stmt 0 discriminator 4
	testq	%rax, %rax
	je	.L1968
	.loc 1 649 5 is_stmt 1
	.loc 1 649 10 is_stmt 0
	movl	$JunkClientData, %ebx
	movq	%rbx, %r12
	shrq	$3, %r12
	cmpb	$0, 2147450880(%r12)
	jne	.L1988
	movq	JunkClientData(%rip), %rdx
	movl	$occasional, %esi
	movl	$1, %r8d
	xorl	%edi, %edi
	movl	$120000, %ecx
	call	tmr_create
.LVL978:
	.loc 1 651 2
	movl	$.LC131, %esi
	.loc 1 649 8
	testq	%rax, %rax
	je	.L1969
	.loc 1 655 5 is_stmt 1
	.loc 1 655 10 is_stmt 0
	cmpb	$0, 2147450880(%r12)
	jne	.L1989
	movq	JunkClientData(%rip), %rdx
	xorl	%edi, %edi
	movl	$1, %r8d
	movl	$5000, %ecx
	movl	$idle, %esi
	call	tmr_create
.LVL979:
	.loc 1 655 8
	testq	%rax, %rax
	je	.L1990
	.loc 1 660 5 is_stmt 1
	.loc 1 660 8 is_stmt 0
	cmpl	$0, numthrottles(%rip)
	jle	.L1720
	.loc 1 663 2 is_stmt 1
	.loc 1 663 7 is_stmt 0
	cmpb	$0, 2147450880(%r12)
	jne	.L1991
	movq	JunkClientData(%rip), %rdx
	movl	$update_throttles, %esi
	movl	$1, %r8d
	xorl	%edi, %edi
	movl	$2000, %ecx
	call	tmr_create
.LVL980:
	.loc 1 665 6
	movl	$.LC133, %esi
	.loc 1 663 5
	testq	%rax, %rax
	je	.L1969
.L1720:
	.loc 1 671 5 is_stmt 1
	.loc 1 671 10 is_stmt 0
	shrq	$3, %rbx
	cmpb	$0, 2147450880(%rbx)
	jne	.L1992
	movq	JunkClientData(%rip), %rdx
	movl	$show_stats, %esi
	movl	$1, %r8d
	xorl	%edi, %edi
	movl	$3600000, %ecx
	call	tmr_create
.LVL981:
	.loc 1 673 2
	movl	$.LC134, %esi
	.loc 1 671 8
	testq	%rax, %rax
	je	.L1969
	.loc 1 677 5 is_stmt 1
	.loc 1 677 31 is_stmt 0
	xorl	%edi, %edi
	call	time
.LVL982:
	.loc 1 678 23
	movq	$0, stats_connections(%rip)
	.loc 1 677 29
	movq	%rax, stats_time(%rip)
	.loc 1 677 16
	movq	%rax, start_time(%rip)
	.loc 1 678 5 is_stmt 1
	.loc 1 679 5
	.loc 1 679 17 is_stmt 0
	movq	$0, stats_bytes(%rip)
	.loc 1 680 5 is_stmt 1
	.loc 1 680 24 is_stmt 0
	movl	$0, stats_simultaneous(%rip)
	.loc 1 683 5 is_stmt 1
	.loc 1 683 10 is_stmt 0
	call	getuid
.LVL983:
	.loc 1 683 8
	testl	%eax, %eax
	je	.L1993
.L1725:
	.loc 1 718 5 is_stmt 1
	.loc 1 718 16 is_stmt 0
	movslq	max_connects(%rip), %r12
	movq	%r12, %rbx
	imulq	$144, %r12, %r12
	movq	%r12, %rdi
	call	malloc
.LVL984:
	.loc 1 718 14
	movq	%rax, connects(%rip)
	.loc 1 719 5 is_stmt 1
	.loc 1 719 8 is_stmt 0
	testq	%rax, %rax
	je	.L1731
	movq	%rax, %rdx
	.loc 1 724 16
	xorl	%ecx, %ecx
	jmp	.L1732
.LVL985:
.L1736:
	.loc 1 726 2 is_stmt 1 discriminator 3
	.loc 1 726 28 is_stmt 0 discriminator 3
	movq	%rdx, %rsi
	shrq	$3, %rsi
	movzbl	2147450880(%rsi), %esi
	testb	%sil, %sil
	je	.L1733
	cmpb	$3, %sil
	jle	.L1994
.L1733:
	.loc 1 727 35 discriminator 3
	leaq	4(%rdx), %rdi
	.loc 1 726 28 discriminator 3
	movl	$0, (%rdx)
	.loc 1 727 2 is_stmt 1 discriminator 3
	.loc 1 727 42 is_stmt 0 discriminator 3
	addl	$1, %ecx
.LVL986:
	.loc 1 727 35 discriminator 3
	movq	%rdi, %rsi
	shrq	$3, %rsi
	movzbl	2147450880(%rsi), %r8d
	movq	%rdi, %rsi
	andl	$7, %esi
	addl	$3, %esi
	cmpb	%r8b, %sil
	jl	.L1734
	testb	%r8b, %r8b
	jne	.L1995
.L1734:
	.loc 1 728 20 discriminator 3
	leaq	8(%rdx), %rdi
	.loc 1 727 35 discriminator 3
	movl	%ecx, 4(%rdx)
	.loc 1 728 2 is_stmt 1 discriminator 3
	.loc 1 728 20 is_stmt 0 discriminator 3
	movq	%rdi, %rsi
	shrq	$3, %rsi
	cmpb	$0, 2147450880(%rsi)
	jne	.L1996
	movq	$0, 8(%rdx)
.LVL987:
	addq	$144, %rdx
.LVL988:
.L1732:
	.loc 1 724 5 discriminator 1
	cmpl	%ecx, %ebx
	jg	.L1736
	.loc 1 730 5 is_stmt 1
	.loc 1 730 13 is_stmt 0
	leaq	-144(%rax,%r12), %rdx
	.loc 1 730 50
	leaq	4(%rdx), %rdi
	movq	%rdi, %rax
	shrq	$3, %rax
	movzbl	2147450880(%rax), %ecx
.LVL989:
	movq	%rdi, %rax
	andl	$7, %eax
	addl	$3, %eax
	cmpb	%cl, %al
	jl	.L1737
	testb	%cl, %cl
	jne	.L1997
.L1737:
	.loc 1 735 13
	movq	hs(%rip), %rax
	.loc 1 730 50
	movl	$-1, 4(%rdx)
	.loc 1 731 5 is_stmt 1
	.loc 1 731 24 is_stmt 0
	movl	$0, first_free_connect(%rip)
	.loc 1 732 5 is_stmt 1
	.loc 1 732 18 is_stmt 0
	movl	$0, num_connects(%rip)
	.loc 1 733 5 is_stmt 1
	.loc 1 733 22 is_stmt 0
	movl	$0, httpd_conn_count(%rip)
	.loc 1 735 5 is_stmt 1
	.loc 1 735 8 is_stmt 0
	testq	%rax, %rax
	je	.L1739
	.loc 1 737 2 is_stmt 1
	.loc 1 737 9 is_stmt 0
	leaq	72(%rax), %rdi
	movq	%rdi, %rdx
	shrq	$3, %rdx
	movzbl	2147450880(%rdx), %edx
	testb	%dl, %dl
	je	.L1740
	cmpb	$3, %dl
	jle	.L1998
.L1740:
	movl	72(%rax), %edi
	.loc 1 737 5
	cmpl	$-1, %edi
	je	.L1741
	.loc 1 738 6 is_stmt 1
	xorl	%edx, %edx
	xorl	%esi, %esi
	call	fdwatch_add_fd
.LVL990:
	movq	hs(%rip), %rax
.L1741:
	.loc 1 739 2
	.loc 1 739 9 is_stmt 0
	leaq	76(%rax), %rdi
	movq	%rdi, %rdx
	shrq	$3, %rdx
	movzbl	2147450880(%rdx), %ecx
	movq	%rdi, %rdx
	andl	$7, %edx
	addl	$3, %edx
	cmpb	%cl, %dl
	jl	.L1742
	testb	%cl, %cl
	jne	.L1999
.L1742:
	movl	76(%rax), %edi
	.loc 1 739 5
	cmpl	$-1, %edi
	je	.L1739
	.loc 1 740 6 is_stmt 1
	xorl	%edx, %edx
	xorl	%esi, %esi
	call	fdwatch_add_fd
.LVL991:
.L1739:
	.loc 1 744 5
	subq	$4544, %rbp
	movq	%rbp, %rdi
	call	tmr_prepare_timeval
.LVL992:
	.loc 1 745 5
.L1744:
	.loc 1 745 11 is_stmt 0
	cmpl	$0, terminate(%rip)
	je	.L1776
	.loc 1 745 29 discriminator 1
	cmpl	$0, num_connects(%rip)
	jle	.L2000
.L1776:
	.loc 1 748 2 is_stmt 1
	.loc 1 748 7 is_stmt 0
	movl	got_hup(%rip), %eax
	.loc 1 748 5
	testl	%eax, %eax
	jne	.L2001
.L1745:
	.loc 1 755 2 is_stmt 1
	.loc 1 755 14 is_stmt 0
	movq	%rbp, %rdi
	call	tmr_mstimeout
.LVL993:
	movq	%rax, %rdi
	call	fdwatch
.LVL994:
	movl	%eax, %ebx
.LVL995:
	.loc 1 756 2 is_stmt 1
	.loc 1 756 5 is_stmt 0
	testl	%eax, %eax
	jns	.L1746
	.loc 1 758 6 is_stmt 1
	.loc 1 758 11 is_stmt 0
	call	__errno_location
.LVL996:
	movq	%rax, %rdx
	shrq	$3, %rdx
	movzbl	2147450880(%rdx), %ecx
	movq	%rax, %rdx
	andl	$7, %edx
	addl	$3, %edx
	cmpb	%cl, %dl
	jl	.L1747
	testb	%cl, %cl
	jne	.L2002
.L1747:
	movl	(%rax), %eax
	.loc 1 758 9
	cmpl	$4, %eax
	je	.L1744
	cmpl	$11, %eax
	je	.L1744
	.loc 1 760 6 is_stmt 1
	movl	$.LC141, %esi
	movl	$3, %edi
	jmp	.L1970
.LVL997:
.L1685:
	.loc 1 425 7
	.loc 1 425 12 is_stmt 0
	movl	$.LC83, %esi
	movq	%r12, %rdi
	call	strcmp
.LVL998:
	.loc 1 425 10
	testl	%eax, %eax
	jne	.L1686
	.loc 1 426 6 is_stmt 1
	.loc 1 426 12 is_stmt 0
	movl	$stdout, %eax
	movq	stdout(%rip), %rcx
	shrq	$3, %rax
	cmpb	$0, 2147450880(%rax)
	movq	%rcx, 8(%rsp)
	je	.L1684
	movl	$stdout, %edi
	call	__asan_report_load8
.LVL999:
.L1983:
	.loc 1 552 2 is_stmt 1
	movl	$.LC123, %esi
.L1967:
	movl	$2, %edi
.L1970:
	xorl	%eax, %eax
	call	syslog
.LVL1000:
.L1968:
	.loc 1 553 2
	call	__asan_handle_no_return
.LVL1001:
	movl	$1, %edi
	call	exit
.LVL1002:
.L1696:
	.loc 1 529 2
	.loc 1 529 9 is_stmt 0
	call	setsid
.LVL1003:
	jmp	.L1701
.LVL1004:
.L1976:
	.loc 1 406 2 is_stmt 1
	.loc 1 406 8 is_stmt 0
	movq	user(%rip), %rdi
	call	getpwnam
.LVL1005:
	.loc 1 407 2 is_stmt 1
	.loc 1 407 5 is_stmt 0
	testq	%rax, %rax
	je	.L2003
	.loc 1 413 2 is_stmt 1
	.loc 1 413 6 is_stmt 0
	leaq	16(%rax), %rdi
	movq	%rdi, %rdx
	shrq	$3, %rdx
	movzbl	2147450880(%rdx), %edx
	testb	%dl, %dl
	je	.L1682
	cmpb	$3, %dl
	jle	.L2004
.L1682:
	.loc 1 414 6
	leaq	20(%rax), %rdi
	.loc 1 413 6
	movl	16(%rax), %ecx
	.loc 1 414 6
	movq	%rdi, %rdx
	shrq	$3, %rdx
	.loc 1 413 6
	movl	%ecx, 40(%rsp)
.LVL1006:
	.loc 1 414 2 is_stmt 1
	.loc 1 414 6 is_stmt 0
	movzbl	2147450880(%rdx), %ecx
.LVL1007:
	movq	%rdi, %rdx
	andl	$7, %edx
	addl	$3, %edx
	cmpb	%cl, %dl
	jl	.L1683
	testb	%cl, %cl
	jne	.L2005
.L1683:
	movl	20(%rax), %eax
.LVL1008:
	movl	%eax, 20(%rsp)
.LVL1009:
	jmp	.L1679
.LVL1010:
.L1778:
	.loc 1 457 8
	movq	$0, 8(%rsp)
	jmp	.L1684
.L1686:
	.loc 1 429 6 is_stmt 1
	.loc 1 429 14 is_stmt 0
	movq	%r12, %rdi
	movl	$.LC85, %esi
	call	fopen
.LVL1011:
	.loc 1 430 6 is_stmt 1
	.loc 1 430 17 is_stmt 0
	movq	logfile(%rip), %r12
	movl	$384, %esi
	.loc 1 429 14
	movq	%rax, 8(%rsp)
.LVL1012:
	.loc 1 430 17
	movq	%r12, %rdi
	call	chmod
.LVL1013:
	.loc 1 431 6 is_stmt 1
	.loc 1 431 9 is_stmt 0
	cmpq	$0, 8(%rsp)
	je	.L1781
	testl	%eax, %eax
	jne	.L1781
	.loc 1 437 6 is_stmt 1
	.loc 1 437 18 is_stmt 0
	movq	%r12, %rax
.LVL1014:
	movq	%r12, %rdx
	shrq	$3, %rax
	andl	$7, %edx
	movzbl	2147450880(%rax), %eax
	cmpb	%dl, %al
	jg	.L1690
	testb	%al, %al
	je	.L1690
	movq	%r12, %rdi
	call	__asan_report_load1
.LVL1015:
.L1690:
	.loc 1 437 9
	cmpb	$47, (%r12)
	jne	.L2006
.L1691:
	.loc 1 442 6 is_stmt 1
	.loc 1 442 13 is_stmt 0
	movq	8(%rsp), %rdi
	call	fileno
.LVL1016:
	movl	$1, %edx
	movl	$2, %esi
	movl	%eax, %edi
	xorl	%eax, %eax
	call	fcntl
.LVL1017:
	.loc 1 443 6 is_stmt 1
	.loc 1 443 11 is_stmt 0
	call	getuid
.LVL1018:
	.loc 1 443 9
	testl	%eax, %eax
	jne	.L1684
	.loc 1 448 3 is_stmt 1
	.loc 1 448 8 is_stmt 0
	movq	8(%rsp), %rdi
	call	fileno
.LVL1019:
	movl	20(%rsp), %edx
	movl	40(%rsp), %esi
	movl	%eax, %edi
	call	fchown
.LVL1020:
	.loc 1 448 6
	testl	%eax, %eax
	jns	.L1684
	.loc 1 450 7 is_stmt 1
	movl	$.LC115, %esi
	movl	$4, %edi
	xorl	%eax, %eax
	call	syslog
.LVL1021:
	.loc 1 451 7
	movl	$.LC116, %edi
	call	perror
.LVL1022:
	jmp	.L1684
.LVL1023:
.L1990:
	.loc 1 657 2
	movl	$.LC132, %esi
.L1969:
	movl	$2, %edi
	call	syslog
.LVL1024:
	.loc 1 658 2
	call	__asan_handle_no_return
.LVL1025:
	movl	$1, %edi
	call	exit
.LVL1026:
.L1975:
	.loc 1 389 2
	xorl	%eax, %eax
	movl	$.LC108, %esi
	movl	$3, %edi
	call	syslog
.LVL1027:
	.loc 1 390 2
	.loc 1 390 9 is_stmt 0
	movl	$stderr, %eax
	.loc 1 390 2
	movq	argv0(%rip), %rdx
	.loc 1 390 9
	shrq	$3, %rax
	cmpb	$0, 2147450880(%rax)
	jne	.L2007
	movq	stderr(%rip), %rdi
	movl	$.LC109, %esi
	xorl	%eax, %eax
	call	fprintf
.LVL1028:
	.loc 1 391 2 is_stmt 1
	call	__asan_handle_no_return
.LVL1029:
	movl	$1, %edi
	call	exit
.LVL1030:
.L1977:
	.loc 1 464 6
	movl	$.LC117, %esi
	xorl	%eax, %eax
	movl	$2, %edi
	call	syslog
.LVL1031:
	.loc 1 465 6
	movl	$.LC118, %edi
	call	perror
.LVL1032:
	.loc 1 466 6
	call	__asan_handle_no_return
.LVL1033:
	movl	$1, %edi
	call	exit
.LVL1034:
.L1982:
.LBB16:
	.loc 1 539 6
	movq	pidfile(%rip), %rdx
	movl	$2, %edi
	movl	$.LC75, %esi
	xorl	%eax, %eax
.LVL1035:
	call	syslog
.LVL1036:
	.loc 1 540 6
	call	__asan_handle_no_return
.LVL1037:
	movl	$1, %edi
	call	exit
.LVL1038:
.L1984:
.LBE16:
	.loc 1 560 2
	.loc 1 560 7 is_stmt 0
	movq	%r12, %rdi
	call	chroot
.LVL1039:
	.loc 1 560 5
	testl	%eax, %eax
	js	.L2008
	.loc 1 571 2 is_stmt 1
	.loc 1 571 15 is_stmt 0
	movq	logfile(%rip), %rcx
	.loc 1 571 5
	testq	%rcx, %rcx
	je	.L1707
	.loc 1 571 31 discriminator 1
	movl	$.LC83, %esi
	movq	%rcx, %rdi
	movq	%rcx, 24(%rsp)
	call	strcmp
.LVL1040:
	.loc 1 571 28 discriminator 1
	testl	%eax, %eax
	je	.L1707
	.loc 1 573 6 is_stmt 1
	.loc 1 573 11 is_stmt 0
	movq	%r12, %rdi
	call	strlen
.LVL1041:
	movq	24(%rsp), %rcx
	movq	%r12, %rsi
	movq	%rax, %rdx
	movq	%rax, 32(%rsp)
	movq	%rcx, %rdi
	call	strncmp
.LVL1042:
	.loc 1 573 9
	testl	%eax, %eax
	jne	.L1708
	.loc 1 575 3 is_stmt 1
	.loc 1 575 27 is_stmt 0
	movq	24(%rsp), %rcx
	movq	32(%rsp), %r8
	.loc 1 575 10
	movq	%rcx, %rdi
	.loc 1 575 27
	leaq	-1(%rcx,%r8), %rsi
	.loc 1 575 10
	call	strcpy
.LVL1043:
.L1707:
	.loc 1 587 2 is_stmt 1
	.loc 1 587 9 is_stmt 0
	movq	%r12, %rdi
	movl	$2, %edx
	movl	$.LC119, %esi
	call	memcpy
.LVL1044:
	.loc 1 589 2 is_stmt 1
	.loc 1 589 7 is_stmt 0
	movq	%r12, %rdi
	call	chdir
.LVL1045:
	.loc 1 589 5
	testl	%eax, %eax
	jns	.L1705
	.loc 1 591 6 is_stmt 1
	movl	$.LC127, %esi
	xorl	%eax, %eax
	movl	$2, %edi
	call	syslog
.LVL1046:
	.loc 1 592 6
	movl	$.LC128, %edi
	call	perror
.LVL1047:
	.loc 1 593 6
	call	__asan_handle_no_return
.LVL1048:
	movl	$1, %edi
	call	exit
.LVL1049:
.L1985:
	.loc 1 602 6
	movl	$.LC129, %esi
	xorl	%eax, %eax
	movl	$2, %edi
	call	syslog
.LVL1050:
	.loc 1 603 6
	movl	$.LC130, %edi
	call	perror
.LVL1051:
	.loc 1 604 6
	call	__asan_handle_no_return
.LVL1052:
	movl	$1, %edi
	call	exit
.LVL1053:
.L2006:
	.loc 1 439 3
	xorl	%eax, %eax
	movl	$.LC113, %esi
	movl	$4, %edi
	call	syslog
.LVL1054:
	.loc 1 440 3
	.loc 1 440 10 is_stmt 0
	movl	$stderr, %eax
	.loc 1 440 3
	movq	argv0(%rip), %rdx
	.loc 1 440 10
	shrq	$3, %rax
	cmpb	$0, 2147450880(%rax)
	jne	.L2009
	movq	stderr(%rip), %rdi
	movl	$.LC114, %esi
	xorl	%eax, %eax
	call	fprintf
.LVL1055:
	jmp	.L1691
.LVL1056:
.L1993:
	.loc 1 686 2 is_stmt 1
	.loc 1 686 7 is_stmt 0
	xorl	%esi, %esi
	xorl	%edi, %edi
	call	setgroups
.LVL1057:
	.loc 1 688 6
	movl	$.LC135, %esi
	.loc 1 686 5
	testl	%eax, %eax
	js	.L1967
	.loc 1 692 2 is_stmt 1
	.loc 1 692 7 is_stmt 0
	movl	20(%rsp), %edi
	call	setgid
.LVL1058:
	.loc 1 694 6
	movl	$.LC136, %esi
	.loc 1 692 5
	testl	%eax, %eax
	js	.L1967
	.loc 1 698 2 is_stmt 1
	.loc 1 698 7 is_stmt 0
	movl	20(%rsp), %esi
	movq	user(%rip), %rdi
	call	initgroups
.LVL1059:
	.loc 1 698 5
	testl	%eax, %eax
	js	.L2010
.L1728:
	.loc 1 705 2 is_stmt 1
	.loc 1 705 7 is_stmt 0
	movl	40(%rsp), %edi
	call	setuid
.LVL1060:
	.loc 1 707 6
	movl	$.LC138, %esi
	.loc 1 705 5
	testl	%eax, %eax
	js	.L1967
	.loc 1 711 2 is_stmt 1
	.loc 1 711 5 is_stmt 0
	cmpl	$0, do_chroot(%rip)
	jne	.L1725
	.loc 1 712 6 is_stmt 1
	movl	$.LC139, %esi
	movl	$4, %edi
	xorl	%eax, %eax
	call	syslog
.LVL1061:
	jmp	.L1725
.LVL1062:
.L1974:
	.loc 1 387 20 is_stmt 0
	movq	%r14, %rdi
	call	__asan_report_load4
.LVL1063:
.L1973:
	.loc 1 387 14
	movq	%r13, %rdi
	call	__asan_report_load4
.LVL1064:
.L1986:
	.loc 1 641 44
	movq	%r14, %rdi
	call	__asan_report_load4
.LVL1065:
.L1987:
	.loc 1 641 8
	movq	%r13, %rdi
	call	__asan_report_load4
.LVL1066:
.L2004:
	.loc 1 413 6
	call	__asan_report_load4
.LVL1067:
.L2005:
	.loc 1 414 6
	call	__asan_report_load4
.LVL1068:
.L2003:
	.loc 1 409 6 is_stmt 1
	movq	user(%rip), %rdx
	movl	$.LC110, %esi
	movl	$2, %edi
	call	syslog
.LVL1069:
	.loc 1 410 6
	.loc 1 410 13 is_stmt 0
	movl	$stderr, %eax
	.loc 1 410 6
	movq	user(%rip), %rcx
	movq	argv0(%rip), %rdx
	.loc 1 410 13
	shrq	$3, %rax
	cmpb	$0, 2147450880(%rax)
	jne	.L2011
	movq	stderr(%rip), %rdi
	movl	$.LC111, %esi
	xorl	%eax, %eax
	call	fprintf
.LVL1070:
	.loc 1 411 6 is_stmt 1
	call	__asan_handle_no_return
.LVL1071:
	movl	$1, %edi
	call	exit
.LVL1072:
.L1746:
	.loc 1 763 2
	movq	%rbp, %rdi
	call	tmr_prepare_timeval
.LVL1073:
	.loc 1 765 2
	.loc 1 765 5 is_stmt 0
	testl	%ebx, %ebx
	je	.L2012
	.loc 1 773 2 is_stmt 1
	.loc 1 773 10 is_stmt 0
	movq	hs(%rip), %rax
	.loc 1 773 5
	testq	%rax, %rax
	je	.L1763
	.loc 1 773 36 discriminator 1
	leaq	76(%rax), %rdi
	movq	%rdi, %rdx
	shrq	$3, %rdx
	movzbl	2147450880(%rdx), %ecx
	movq	%rdi, %rdx
	andl	$7, %edx
	addl	$3, %edx
	cmpb	%cl, %dl
	jl	.L1754
	testb	%cl, %cl
	jne	.L2013
.L1754:
	movl	76(%rax), %edi
	.loc 1 773 31 discriminator 1
	cmpl	$-1, %edi
	je	.L1755
	.loc 1 774 7 discriminator 2
	call	fdwatch_check_fd
.LVL1074:
	.loc 1 773 55 discriminator 2
	testl	%eax, %eax
	jne	.L1756
.L1760:
	.loc 1 783 2 is_stmt 1
	.loc 1 783 10 is_stmt 0
	movq	hs(%rip), %rax
	.loc 1 783 5
	testq	%rax, %rax
	je	.L1763
.L1755:
	.loc 1 783 36 discriminator 1
	leaq	72(%rax), %rdi
	movq	%rdi, %rdx
	shrq	$3, %rdx
	movzbl	2147450880(%rdx), %edx
	testb	%dl, %dl
	je	.L1761
	cmpb	$3, %dl
	jle	.L2014
.L1761:
	movl	72(%rax), %edi
	.loc 1 783 31 discriminator 1
	cmpl	$-1, %edi
	je	.L1763
	.loc 1 784 7 discriminator 2
	call	fdwatch_check_fd
.LVL1075:
	.loc 1 783 55 discriminator 2
	testl	%eax, %eax
	je	.L1763
	.loc 1 786 6 is_stmt 1
	.loc 1 786 37 is_stmt 0
	movq	hs(%rip), %rax
	.loc 1 786 11
	leaq	72(%rax), %rdi
	movq	%rdi, %rdx
	shrq	$3, %rdx
	movzbl	2147450880(%rdx), %edx
	testb	%dl, %dl
	je	.L1762
	cmpb	$3, %dl
	jle	.L2015
.L1762:
	movl	72(%rax), %esi
	movq	%rbp, %rdi
	call	handle_newconnect
.LVL1076:
	.loc 1 786 9
	testl	%eax, %eax
	jne	.L1744
.LVL1077:
.L1763:
	.loc 1 795 30
	call	fdwatch_get_next_client_data
.LVL1078:
	movq	%rax, %rbx
.LVL1079:
	.loc 1 795 8
	cmpq	$-1, %rax
	je	.L2016
	.loc 1 797 6 is_stmt 1
	.loc 1 797 9 is_stmt 0
	testq	%rbx, %rbx
	je	.L1763
	.loc 1 799 6 is_stmt 1
	.loc 1 799 9 is_stmt 0
	leaq	8(%rbx), %rdi
	movq	%rdi, %rax
.LVL1080:
	shrq	$3, %rax
	cmpb	$0, 2147450880(%rax)
	jne	.L2017
	movq	8(%rbx), %rax
.LVL1081:
	.loc 1 800 6 is_stmt 1
	.loc 1 800 13 is_stmt 0
	leaq	704(%rax), %rdi
	movq	%rdi, %rdx
	shrq	$3, %rdx
	movzbl	2147450880(%rdx), %edx
	testb	%dl, %dl
	je	.L1765
	cmpb	$3, %dl
	jle	.L2018
.L1765:
	movl	704(%rax), %edi
	call	fdwatch_check_fd
.LVL1082:
	.loc 1 800 9
	testl	%eax, %eax
	je	.L2019
	.loc 1 804 3 is_stmt 1
	.loc 1 804 13 is_stmt 0
	movq	%rbx, %rax
	shrq	$3, %rax
	movzbl	2147450880(%rax), %eax
	testb	%al, %al
	je	.L1768
	cmpb	$3, %al
	jle	.L2020
.L1768:
	movl	(%rbx), %eax
	cmpl	$2, %eax
	je	.L1769
	cmpl	$4, %eax
	je	.L1770
	subl	$1, %eax
	jne	.L1763
	.loc 1 806 26 is_stmt 1
	movq	%rbp, %rsi
	movq	%rbx, %rdi
	call	handle_read
.LVL1083:
	.loc 1 806 49
	.loc 1 806 7 is_stmt 0
	jmp	.L1763
.L2019:
	.loc 1 802 3 is_stmt 1
	movq	%rbp, %rsi
	movq	%rbx, %rdi
	call	clear_connection
.LVL1084:
	jmp	.L1763
.LVL1085:
.L2001:
	.loc 1 750 6
	call	re_open_logfile
.LVL1086:
	.loc 1 751 6
	.loc 1 751 14 is_stmt 0
	movl	$0, got_hup(%rip)
	jmp	.L1745
.LVL1087:
.L1781:
	.loc 1 433 3 is_stmt 1
	movq	%r12, %rdx
	movl	$.LC75, %esi
	xorl	%eax, %eax
.LVL1088:
	movl	$2, %edi
	call	syslog
.LVL1089:
	.loc 1 434 3
	movq	logfile(%rip), %rdi
	call	perror
.LVL1090:
	.loc 1 435 3
	call	__asan_handle_no_return
.LVL1091:
	movl	$1, %edi
	call	exit
.LVL1092:
.L2008:
	.loc 1 562 6
	movl	$.LC124, %esi
	xorl	%eax, %eax
	movl	$2, %edi
	call	syslog
.LVL1093:
	.loc 1 563 6
	movl	$.LC21, %edi
	call	perror
.LVL1094:
	.loc 1 564 6
	call	__asan_handle_no_return
.LVL1095:
	movl	$1, %edi
	call	exit
.LVL1096:
.L2016:
	.loc 1 811 2
	movq	%rbp, %rdi
	call	tmr_run
.LVL1097:
	.loc 1 813 2
	.loc 1 813 7 is_stmt 0
	movl	got_usr1(%rip), %eax
	.loc 1 813 5
	testl	%eax, %eax
	je	.L1744
	.loc 1 813 16 discriminator 1
	cmpl	$0, terminate(%rip)
	jne	.L1744
	.loc 1 815 6 is_stmt 1
	.loc 1 816 14 is_stmt 0
	movq	hs(%rip), %rax
	.loc 1 815 16
	movl	$1, terminate(%rip)
	.loc 1 816 6 is_stmt 1
	.loc 1 816 9 is_stmt 0
	testq	%rax, %rax
	je	.L1744
	.loc 1 818 3 is_stmt 1
	.loc 1 818 10 is_stmt 0
	leaq	72(%rax), %rdi
	movq	%rdi, %rdx
	shrq	$3, %rdx
	movzbl	2147450880(%rdx), %edx
	testb	%dl, %dl
	je	.L1772
	cmpb	$3, %dl
	jle	.L2021
.L1772:
	movl	72(%rax), %edi
	.loc 1 818 6
	cmpl	$-1, %edi
	je	.L1773
	.loc 1 819 7 is_stmt 1
	call	fdwatch_del_fd
.LVL1098:
	movq	hs(%rip), %rax
.L1773:
	.loc 1 820 3
	.loc 1 820 10 is_stmt 0
	leaq	76(%rax), %rdi
	movq	%rdi, %rdx
	shrq	$3, %rdx
	movzbl	2147450880(%rdx), %ecx
	movq	%rdi, %rdx
	andl	$7, %edx
	addl	$3, %edx
	cmpb	%cl, %dl
	jl	.L1774
	testb	%cl, %cl
	jne	.L2022
.L1774:
	movl	76(%rax), %edi
	.loc 1 820 6
	cmpl	$-1, %edi
	je	.L1775
	.loc 1 821 7 is_stmt 1
	call	fdwatch_del_fd
.LVL1099:
.L1775:
	.loc 1 822 3
	movq	hs(%rip), %rdi
	call	httpd_unlisten
.LVL1100:
	jmp	.L1744
.L1770:
	.loc 1 808 28
	movq	%rbp, %rsi
	movq	%rbx, %rdi
	call	handle_linger
.LVL1101:
	.loc 1 808 53
	.loc 1 808 7 is_stmt 0
	jmp	.L1763
.L1769:
	.loc 1 807 26 is_stmt 1
	movq	%rbp, %rsi
	movq	%rbx, %rdi
	call	handle_send
.LVL1102:
	.loc 1 807 49
	.loc 1 807 7 is_stmt 0
	jmp	.L1763
.LVL1103:
.L1708:
	.loc 1 583 3 is_stmt 1
	xorl	%eax, %eax
	movl	$.LC125, %esi
	movl	$4, %edi
	call	syslog
.LVL1104:
	.loc 1 584 3
	.loc 1 584 10 is_stmt 0
	movl	$stderr, %eax
	.loc 1 584 3
	movq	argv0(%rip), %rdx
	.loc 1 584 10
	shrq	$3, %rax
	cmpb	$0, 2147450880(%rax)
	jne	.L2023
	movq	stderr(%rip), %rdi
	movl	$.LC126, %esi
	xorl	%eax, %eax
	call	fprintf
.LVL1105:
	jmp	.L1707
.LVL1106:
.L2012:
	.loc 1 768 6 is_stmt 1
	movq	%rbp, %rdi
	call	tmr_run
.LVL1107:
	.loc 1 769 6
	jmp	.L1744
.LVL1108:
.L1731:
	.loc 1 721 2
	movl	$.LC140, %esi
	jmp	.L1967
.LVL1109:
.L1756:
	.loc 1 776 6
	.loc 1 776 37 is_stmt 0
	movq	hs(%rip), %rdx
	.loc 1 776 11
	leaq	76(%rdx), %rdi
	movq	%rdi, %rax
	shrq	$3, %rax
	movzbl	2147450880(%rax), %ecx
	movq	%rdi, %rax
	andl	$7, %eax
	addl	$3, %eax
	cmpb	%cl, %al
	jl	.L1758
	testb	%cl, %cl
	jne	.L2024
.L1758:
	movl	76(%rdx), %esi
	movq	%rbp, %rdi
	call	handle_newconnect
.LVL1110:
	.loc 1 776 9
	testl	%eax, %eax
	je	.L1760
	jmp	.L1744
.LVL1111:
.L2000:
	.loc 1 828 5 is_stmt 1
	call	shut_down
.LVL1112:
	.loc 1 829 5
	movl	$5, %edi
	movl	$.LC91, %esi
	xorl	%eax, %eax
	call	syslog
.LVL1113:
	.loc 1 830 5
	call	closelog
.LVL1114:
	.loc 1 831 5
	call	__asan_handle_no_return
.LVL1115:
	xorl	%edi, %edi
	call	exit
.LVL1116:
.L2010:
	.loc 1 699 6
	movl	$.LC137, %esi
	movl	$4, %edi
	xorl	%eax, %eax
	call	syslog
.LVL1117:
	jmp	.L1728
.LVL1118:
.L1971:
	.loc 1 353 5 is_stmt 0
	movl	$4704, %edi
.LVL1119:
	call	__asan_stack_malloc_7
.LVL1120:
	testq	%rax, %rax
	cmovne	%rax, %rbx
	jmp	.L1668
.LVL1121:
.L1972:
	.loc 1 370 17
	movq	%r13, %rdi
	call	__asan_report_load8
.LVL1122:
.L1978:
	.loc 1 487 13
	call	__asan_report_load1
.LVL1123:
.L1980:
	.loc 1 496 13
	movl	$stdout, %edi
	call	__asan_report_load8
.LVL1124:
.L1979:
	.loc 1 495 9
	movl	$stdin, %edi
	call	__asan_report_load8
.LVL1125:
.L1981:
	.loc 1 498 9
	movl	$stderr, %edi
	call	__asan_report_load8
.LVL1126:
.L1994:
	.loc 1 726 28
	movq	%rdx, %rdi
	call	__asan_report_store4
.LVL1127:
.L1996:
	.loc 1 728 20
	call	__asan_report_store8
.LVL1128:
.L1995:
	.loc 1 727 35
	call	__asan_report_store4
.LVL1129:
.L1989:
	.loc 1 655 10
	movl	$JunkClientData, %edi
	call	__asan_report_load8
.LVL1130:
.L1988:
	.loc 1 649 10
	movq	%rbx, %rdi
	call	__asan_report_load8
.LVL1131:
.L2007:
	.loc 1 390 9
	movl	$stderr, %edi
	call	__asan_report_load8
.LVL1132:
.L2017:
	.loc 1 799 9
	call	__asan_report_load8
.LVL1133:
.L2018:
	.loc 1 800 13
	call	__asan_report_load4
.LVL1134:
.L2021:
	.loc 1 818 10
	call	__asan_report_load4
.LVL1135:
.L2024:
	.loc 1 776 11
	call	__asan_report_load4
.LVL1136:
.L1992:
	.loc 1 671 10
	movl	$JunkClientData, %edi
	call	__asan_report_load8
.LVL1137:
.L1991:
	.loc 1 663 7
	movl	$JunkClientData, %edi
	call	__asan_report_load8
.LVL1138:
.L2014:
	.loc 1 783 36
	call	__asan_report_load4
.LVL1139:
.L2015:
	.loc 1 786 11
	call	__asan_report_load4
.LVL1140:
.L2013:
	.loc 1 773 36
	call	__asan_report_load4
.LVL1141:
.L2023:
	.loc 1 584 10
	movl	$stderr, %edi
	call	__asan_report_load8
.LVL1142:
.L1997:
	.loc 1 730 50
	call	__asan_report_store4
.LVL1143:
.L2022:
	.loc 1 820 10
	call	__asan_report_load4
.LVL1144:
.L2020:
	.loc 1 804 13
	movq	%rbx, %rdi
	call	__asan_report_load4
.LVL1145:
.L2011:
	.loc 1 410 13
	movl	$stderr, %edi
	call	__asan_report_load8
.LVL1146:
.L1999:
	.loc 1 739 9
	call	__asan_report_load4
.LVL1147:
.L1998:
	.loc 1 737 9
	call	__asan_report_load4
.LVL1148:
.L2002:
	.loc 1 758 11
	movq	%rax, %rdi
	call	__asan_report_load4
.LVL1149:
.L2009:
	.loc 1 440 10
	movl	$stderr, %edi
	call	__asan_report_load8
.LVL1150:
	.cfi_endproc
.LFE9:
	.size	main, .-main
	.bss
	.align 32
	.type	watchdog_flag, @object
	.size	watchdog_flag, 4
watchdog_flag:
	.zero	64
	.align 32
	.type	got_usr1, @object
	.size	got_usr1, 4
got_usr1:
	.zero	64
	.align 32
	.type	got_hup, @object
	.size	got_hup, 4
got_hup:
	.zero	64
	.comm	stats_simultaneous,4,4
	.comm	stats_bytes,8,8
	.comm	stats_connections,8,8
	.comm	stats_time,8,8
	.comm	start_time,8,8
	.globl	terminate
	.align 32
	.type	terminate, @object
	.size	terminate, 4
terminate:
	.zero	64
	.align 32
	.type	hs, @object
	.size	hs, 8
hs:
	.zero	64
	.align 32
	.type	httpd_conn_count, @object
	.size	httpd_conn_count, 4
httpd_conn_count:
	.zero	64
	.align 32
	.type	first_free_connect, @object
	.size	first_free_connect, 4
first_free_connect:
	.zero	64
	.align 32
	.type	max_connects, @object
	.size	max_connects, 4
max_connects:
	.zero	64
	.align 32
	.type	num_connects, @object
	.size	num_connects, 4
num_connects:
	.zero	64
	.align 32
	.type	connects, @object
	.size	connects, 8
connects:
	.zero	64
	.align 32
	.type	maxthrottles, @object
	.size	maxthrottles, 4
maxthrottles:
	.zero	64
	.align 32
	.type	numthrottles, @object
	.size	numthrottles, 4
numthrottles:
	.zero	64
	.align 32
	.type	throttles, @object
	.size	throttles, 8
throttles:
	.zero	64
	.align 32
	.type	max_age, @object
	.size	max_age, 4
max_age:
	.zero	64
	.align 32
	.type	p3p, @object
	.size	p3p, 8
p3p:
	.zero	64
	.align 32
	.type	charset, @object
	.size	charset, 8
charset:
	.zero	64
	.align 32
	.type	user, @object
	.size	user, 8
user:
	.zero	64
	.align 32
	.type	pidfile, @object
	.size	pidfile, 8
pidfile:
	.zero	64
	.align 32
	.type	hostname, @object
	.size	hostname, 8
hostname:
	.zero	64
	.align 32
	.type	throttlefile, @object
	.size	throttlefile, 8
throttlefile:
	.zero	64
	.align 32
	.type	logfile, @object
	.size	logfile, 8
logfile:
	.zero	64
	.align 32
	.type	local_pattern, @object
	.size	local_pattern, 8
local_pattern:
	.zero	64
	.align 32
	.type	no_empty_referers, @object
	.size	no_empty_referers, 4
no_empty_referers:
	.zero	64
	.align 32
	.type	url_pattern, @object
	.size	url_pattern, 8
url_pattern:
	.zero	64
	.align 32
	.type	cgi_limit, @object
	.size	cgi_limit, 4
cgi_limit:
	.zero	64
	.align 32
	.type	cgi_pattern, @object
	.size	cgi_pattern, 8
cgi_pattern:
	.zero	64
	.align 32
	.type	do_global_passwd, @object
	.size	do_global_passwd, 4
do_global_passwd:
	.zero	64
	.align 32
	.type	do_vhost, @object
	.size	do_vhost, 4
do_vhost:
	.zero	64
	.align 32
	.type	no_symlink_check, @object
	.size	no_symlink_check, 4
no_symlink_check:
	.zero	64
	.align 32
	.type	no_log, @object
	.size	no_log, 4
no_log:
	.zero	64
	.align 32
	.type	do_chroot, @object
	.size	do_chroot, 4
do_chroot:
	.zero	64
	.align 32
	.type	data_dir, @object
	.size	data_dir, 8
data_dir:
	.zero	64
	.align 32
	.type	dir, @object
	.size	dir, 8
dir:
	.zero	64
	.align 32
	.type	port, @object
	.size	port, 2
port:
	.zero	64
	.align 32
	.type	debug, @object
	.size	debug, 4
debug:
	.zero	64
	.align 32
	.type	argv0, @object
	.size	argv0, 8
argv0:
	.zero	64
	.section	.rodata.str1.1
.LC142:
	.string	"thttpd.c"
	.data
	.align 16
	.type	.LASANLOC1, @object
	.size	.LASANLOC1, 16
.LASANLOC1:
	.quad	.LC142
	.long	135
	.long	40
	.align 16
	.type	.LASANLOC2, @object
	.size	.LASANLOC2, 16
.LASANLOC2:
	.quad	.LC142
	.long	135
	.long	30
	.align 16
	.type	.LASANLOC3, @object
	.size	.LASANLOC3, 16
.LASANLOC3:
	.quad	.LC142
	.long	135
	.long	21
	.globl	__odr_asan.terminate
	.bss
	.type	__odr_asan.terminate, @object
	.size	__odr_asan.terminate, 1
__odr_asan.terminate:
	.zero	1
	.data
	.align 16
	.type	.LASANLOC4, @object
	.size	.LASANLOC4, 16
.LASANLOC4:
	.quad	.LC142
	.long	129
	.long	5
	.align 16
	.type	.LASANLOC5, @object
	.size	.LASANLOC5, 16
.LASANLOC5:
	.quad	.LC142
	.long	128
	.long	22
	.align 16
	.type	.LASANLOC6, @object
	.size	.LASANLOC6, 16
.LASANLOC6:
	.quad	.LC142
	.long	118
	.long	12
	.align 16
	.type	.LASANLOC7, @object
	.size	.LASANLOC7, 16
.LASANLOC7:
	.quad	.LC142
	.long	117
	.long	40
	.align 16
	.type	.LASANLOC8, @object
	.size	.LASANLOC8, 16
.LASANLOC8:
	.quad	.LC142
	.long	117
	.long	26
	.align 16
	.type	.LASANLOC9, @object
	.size	.LASANLOC9, 16
.LASANLOC9:
	.quad	.LC142
	.long	117
	.long	12
	.align 16
	.type	.LASANLOC10, @object
	.size	.LASANLOC10, 16
.LASANLOC10:
	.quad	.LC142
	.long	116
	.long	20
	.align 16
	.type	.LASANLOC11, @object
	.size	.LASANLOC11, 16
.LASANLOC11:
	.quad	.LC142
	.long	96
	.long	26
	.align 16
	.type	.LASANLOC12, @object
	.size	.LASANLOC12, 16
.LASANLOC12:
	.quad	.LC142
	.long	96
	.long	12
	.align 16
	.type	.LASANLOC13, @object
	.size	.LASANLOC13, 16
.LASANLOC13:
	.quad	.LC142
	.long	95
	.long	21
	.align 16
	.type	.LASANLOC14, @object
	.size	.LASANLOC14, 16
.LASANLOC14:
	.quad	.LC142
	.long	85
	.long	12
	.align 16
	.type	.LASANLOC15, @object
	.size	.LASANLOC15, 16
.LASANLOC15:
	.quad	.LC142
	.long	84
	.long	14
	.align 16
	.type	.LASANLOC16, @object
	.size	.LASANLOC16, 16
.LASANLOC16:
	.quad	.LC142
	.long	83
	.long	14
	.align 16
	.type	.LASANLOC17, @object
	.size	.LASANLOC17, 16
.LASANLOC17:
	.quad	.LC142
	.long	82
	.long	14
	.align 16
	.type	.LASANLOC18, @object
	.size	.LASANLOC18, 16
.LASANLOC18:
	.quad	.LC142
	.long	81
	.long	14
	.align 16
	.type	.LASANLOC19, @object
	.size	.LASANLOC19, 16
.LASANLOC19:
	.quad	.LC142
	.long	80
	.long	14
	.align 16
	.type	.LASANLOC20, @object
	.size	.LASANLOC20, 16
.LASANLOC20:
	.quad	.LC142
	.long	79
	.long	14
	.align 16
	.type	.LASANLOC21, @object
	.size	.LASANLOC21, 16
.LASANLOC21:
	.quad	.LC142
	.long	78
	.long	14
	.align 16
	.type	.LASANLOC22, @object
	.size	.LASANLOC22, 16
.LASANLOC22:
	.quad	.LC142
	.long	77
	.long	14
	.align 16
	.type	.LASANLOC23, @object
	.size	.LASANLOC23, 16
.LASANLOC23:
	.quad	.LC142
	.long	76
	.long	12
	.align 16
	.type	.LASANLOC24, @object
	.size	.LASANLOC24, 16
.LASANLOC24:
	.quad	.LC142
	.long	75
	.long	14
	.align 16
	.type	.LASANLOC25, @object
	.size	.LASANLOC25, 16
.LASANLOC25:
	.quad	.LC142
	.long	74
	.long	12
	.align 16
	.type	.LASANLOC26, @object
	.size	.LASANLOC26, 16
.LASANLOC26:
	.quad	.LC142
	.long	73
	.long	14
	.align 16
	.type	.LASANLOC27, @object
	.size	.LASANLOC27, 16
.LASANLOC27:
	.quad	.LC142
	.long	72
	.long	59
	.align 16
	.type	.LASANLOC28, @object
	.size	.LASANLOC28, 16
.LASANLOC28:
	.quad	.LC142
	.long	72
	.long	49
	.align 16
	.type	.LASANLOC29, @object
	.size	.LASANLOC29, 16
.LASANLOC29:
	.quad	.LC142
	.long	72
	.long	31
	.align 16
	.type	.LASANLOC30, @object
	.size	.LASANLOC30, 16
.LASANLOC30:
	.quad	.LC142
	.long	72
	.long	23
	.align 16
	.type	.LASANLOC31, @object
	.size	.LASANLOC31, 16
.LASANLOC31:
	.quad	.LC142
	.long	72
	.long	12
	.align 16
	.type	.LASANLOC32, @object
	.size	.LASANLOC32, 16
.LASANLOC32:
	.quad	.LC142
	.long	71
	.long	14
	.align 16
	.type	.LASANLOC33, @object
	.size	.LASANLOC33, 16
.LASANLOC33:
	.quad	.LC142
	.long	70
	.long	14
	.align 16
	.type	.LASANLOC34, @object
	.size	.LASANLOC34, 16
.LASANLOC34:
	.quad	.LC142
	.long	69
	.long	23
	.align 16
	.type	.LASANLOC35, @object
	.size	.LASANLOC35, 16
.LASANLOC35:
	.quad	.LC142
	.long	68
	.long	12
	.align 16
	.type	.LASANLOC36, @object
	.size	.LASANLOC36, 16
.LASANLOC36:
	.quad	.LC142
	.long	67
	.long	14
	.section	.rodata.str1.1
.LC143:
	.string	"watchdog_flag"
.LC144:
	.string	"got_usr1"
.LC145:
	.string	"got_hup"
.LC146:
	.string	"terminate"
.LC147:
	.string	"hs"
.LC148:
	.string	"httpd_conn_count"
.LC149:
	.string	"first_free_connect"
.LC150:
	.string	"max_connects"
.LC151:
	.string	"num_connects"
.LC152:
	.string	"connects"
.LC153:
	.string	"maxthrottles"
.LC154:
	.string	"numthrottles"
.LC155:
	.string	"hostname"
.LC156:
	.string	"throttlefile"
.LC157:
	.string	"local_pattern"
.LC158:
	.string	"no_empty_referers"
.LC159:
	.string	"url_pattern"
.LC160:
	.string	"cgi_limit"
.LC161:
	.string	"cgi_pattern"
.LC162:
	.string	"do_global_passwd"
.LC163:
	.string	"do_vhost"
.LC164:
	.string	"no_symlink_check"
.LC165:
	.string	"no_log"
.LC166:
	.string	"do_chroot"
.LC167:
	.string	"argv0"
.LC168:
	.string	"*.LC96"
.LC169:
	.string	"*.LC117"
.LC170:
	.string	"*.LC39"
.LC171:
	.string	"*.LC84"
.LC172:
	.string	"*.LC137"
.LC173:
	.string	"*.LC79"
.LC174:
	.string	"*.LC80"
.LC175:
	.string	"*.LC1"
.LC176:
	.string	"*.LC129"
.LC177:
	.string	"*.LC132"
.LC178:
	.string	"*.LC70"
.LC179:
	.string	"*.LC35"
.LC180:
	.string	"*.LC61"
.LC181:
	.string	"*.LC76"
.LC182:
	.string	"*.LC63"
.LC183:
	.string	"*.LC83"
.LC184:
	.string	"*.LC55"
.LC185:
	.string	"*.LC124"
.LC186:
	.string	"*.LC130"
.LC187:
	.string	"*.LC36"
.LC188:
	.string	"*.LC21"
.LC189:
	.string	"*.LC32"
.LC190:
	.string	"*.LC136"
.LC191:
	.string	"*.LC56"
.LC192:
	.string	"*.LC45"
.LC193:
	.string	"*.LC104"
.LC194:
	.string	"*.LC29"
.LC195:
	.string	"*.LC6"
.LC196:
	.string	"*.LC3"
.LC197:
	.string	"*.LC108"
.LC198:
	.string	"*.LC106"
.LC199:
	.string	"*.LC82"
.LC200:
	.string	"*.LC77"
.LC201:
	.string	"*.LC116"
.LC202:
	.string	"*.LC31"
.LC203:
	.string	"*.LC40"
.LC204:
	.string	"*.LC50"
.LC205:
	.string	"*.LC57"
.LC206:
	.string	"*.LC41"
.LC207:
	.string	"*.LC119"
.LC208:
	.string	"*.LC62"
.LC209:
	.string	"*.LC30"
.LC210:
	.string	"*.LC0"
.LC211:
	.string	"*.LC85"
.LC212:
	.string	"*.LC138"
.LC213:
	.string	"*.LC122"
.LC214:
	.string	"*.LC12"
.LC215:
	.string	"*.LC47"
.LC216:
	.string	"*.LC48"
.LC217:
	.string	"*.LC103"
.LC218:
	.string	"*.LC128"
.LC219:
	.string	"*.LC43"
.LC220:
	.string	"*.LC99"
.LC221:
	.string	"*.LC19"
.LC222:
	.string	"*.LC25"
.LC223:
	.string	"*.LC127"
.LC224:
	.string	"*.LC110"
.LC225:
	.string	"*.LC111"
.LC226:
	.string	"*.LC141"
.LC227:
	.string	"*.LC20"
.LC228:
	.string	"*.LC51"
.LC229:
	.string	"*.LC73"
.LC230:
	.string	"*.LC89"
.LC231:
	.string	"*.LC67"
.LC232:
	.string	"*.LC64"
.LC233:
	.string	"*.LC65"
.LC234:
	.string	"*.LC114"
.LC235:
	.string	"*.LC16"
.LC236:
	.string	"*.LC121"
.LC237:
	.string	"*.LC120"
.LC238:
	.string	"*.LC78"
.LC239:
	.string	"*.LC123"
.LC240:
	.string	"*.LC4"
.LC241:
	.string	"*.LC125"
.LC242:
	.string	"*.LC17"
.LC243:
	.string	"*.LC68"
.LC244:
	.string	"*.LC22"
.LC245:
	.string	"*.LC42"
.LC246:
	.string	"*.LC66"
.LC247:
	.string	"*.LC26"
.LC248:
	.string	"*.LC86"
.LC249:
	.string	"*.LC33"
.LC250:
	.string	"*.LC49"
.LC251:
	.string	"*.LC118"
.LC252:
	.string	"*.LC126"
.LC253:
	.string	"*.LC105"
.LC254:
	.string	"*.LC100"
.LC255:
	.string	"*.LC139"
.LC256:
	.string	"*.LC95"
.LC257:
	.string	"*.LC75"
.LC258:
	.string	"*.LC9"
.LC259:
	.string	"*.LC134"
.LC260:
	.string	"*.LC71"
.LC261:
	.string	"*.LC81"
.LC262:
	.string	"*.LC54"
.LC263:
	.string	"*.LC69"
.LC264:
	.string	"*.LC58"
.LC265:
	.string	"*.LC135"
.LC266:
	.string	"*.LC90"
.LC267:
	.string	"*.LC140"
.LC268:
	.string	"*.LC2"
.LC269:
	.string	"*.LC93"
.LC270:
	.string	"*.LC5"
.LC271:
	.string	"*.LC94"
.LC272:
	.string	"*.LC133"
.LC273:
	.string	"*.LC98"
.LC274:
	.string	"*.LC91"
.LC275:
	.string	"*.LC23"
.LC276:
	.string	"*.LC59"
.LC277:
	.string	"*.LC10"
.LC278:
	.string	"*.LC115"
.LC279:
	.string	"*.LC112"
.LC280:
	.string	"*.LC87"
.LC281:
	.string	"*.LC34"
.LC282:
	.string	"*.LC131"
.LC283:
	.string	"*.LC44"
.LC284:
	.string	"*.LC27"
.LC285:
	.string	"*.LC88"
.LC286:
	.string	"*.LC92"
.LC287:
	.string	"*.LC52"
.LC288:
	.string	"*.LC72"
.LC289:
	.string	"*.LC38"
.LC290:
	.string	"*.LC53"
.LC291:
	.string	"*.LC60"
.LC292:
	.string	"*.LC37"
.LC293:
	.string	"*.LC28"
.LC294:
	.string	"*.LC13"
.LC295:
	.string	"*.LC14"
.LC296:
	.string	"*.LC109"
.LC297:
	.string	"*.LC24"
.LC298:
	.string	"*.LC113"
.LC299:
	.string	"*.LC18"
	.data
	.align 32
	.type	.LASAN0, @object
	.size	.LASAN0, 10752
.LASAN0:
	.quad	watchdog_flag
	.quad	4
	.quad	64
	.quad	.LC143
	.quad	.LC142
	.quad	0
	.quad	.LASANLOC1
	.quad	0
	.quad	got_usr1
	.quad	4
	.quad	64
	.quad	.LC144
	.quad	.LC142
	.quad	0
	.quad	.LASANLOC2
	.quad	0
	.quad	got_hup
	.quad	4
	.quad	64
	.quad	.LC145
	.quad	.LC142
	.quad	0
	.quad	.LASANLOC3
	.quad	0
	.quad	terminate
	.quad	4
	.quad	64
	.quad	.LC146
	.quad	.LC142
	.quad	0
	.quad	.LASANLOC4
	.quad	__odr_asan.terminate
	.quad	hs
	.quad	8
	.quad	64
	.quad	.LC147
	.quad	.LC142
	.quad	0
	.quad	.LASANLOC5
	.quad	0
	.quad	httpd_conn_count
	.quad	4
	.quad	64
	.quad	.LC148
	.quad	.LC142
	.quad	0
	.quad	.LASANLOC6
	.quad	0
	.quad	first_free_connect
	.quad	4
	.quad	64
	.quad	.LC149
	.quad	.LC142
	.quad	0
	.quad	.LASANLOC7
	.quad	0
	.quad	max_connects
	.quad	4
	.quad	64
	.quad	.LC150
	.quad	.LC142
	.quad	0
	.quad	.LASANLOC8
	.quad	0
	.quad	num_connects
	.quad	4
	.quad	64
	.quad	.LC151
	.quad	.LC142
	.quad	0
	.quad	.LASANLOC9
	.quad	0
	.quad	connects
	.quad	8
	.quad	64
	.quad	.LC152
	.quad	.LC142
	.quad	0
	.quad	.LASANLOC10
	.quad	0
	.quad	maxthrottles
	.quad	4
	.quad	64
	.quad	.LC153
	.quad	.LC142
	.quad	0
	.quad	.LASANLOC11
	.quad	0
	.quad	numthrottles
	.quad	4
	.quad	64
	.quad	.LC154
	.quad	.LC142
	.quad	0
	.quad	.LASANLOC12
	.quad	0
	.quad	throttles
	.quad	8
	.quad	64
	.quad	.LC34
	.quad	.LC142
	.quad	0
	.quad	.LASANLOC13
	.quad	0
	.quad	max_age
	.quad	4
	.quad	64
	.quad	.LC44
	.quad	.LC142
	.quad	0
	.quad	.LASANLOC14
	.quad	0
	.quad	p3p
	.quad	8
	.quad	64
	.quad	.LC43
	.quad	.LC142
	.quad	0
	.quad	.LASANLOC15
	.quad	0
	.quad	charset
	.quad	8
	.quad	64
	.quad	.LC42
	.quad	.LC142
	.quad	0
	.quad	.LASANLOC16
	.quad	0
	.quad	user
	.quad	8
	.quad	64
	.quad	.LC28
	.quad	.LC142
	.quad	0
	.quad	.LASANLOC17
	.quad	0
	.quad	pidfile
	.quad	8
	.quad	64
	.quad	.LC41
	.quad	.LC142
	.quad	0
	.quad	.LASANLOC18
	.quad	0
	.quad	hostname
	.quad	8
	.quad	64
	.quad	.LC155
	.quad	.LC142
	.quad	0
	.quad	.LASANLOC19
	.quad	0
	.quad	throttlefile
	.quad	8
	.quad	64
	.quad	.LC156
	.quad	.LC142
	.quad	0
	.quad	.LASANLOC20
	.quad	0
	.quad	logfile
	.quad	8
	.quad	64
	.quad	.LC36
	.quad	.LC142
	.quad	0
	.quad	.LASANLOC21
	.quad	0
	.quad	local_pattern
	.quad	8
	.quad	64
	.quad	.LC157
	.quad	.LC142
	.quad	0
	.quad	.LASANLOC22
	.quad	0
	.quad	no_empty_referers
	.quad	4
	.quad	64
	.quad	.LC158
	.quad	.LC142
	.quad	0
	.quad	.LASANLOC23
	.quad	0
	.quad	url_pattern
	.quad	8
	.quad	64
	.quad	.LC159
	.quad	.LC142
	.quad	0
	.quad	.LASANLOC24
	.quad	0
	.quad	cgi_limit
	.quad	4
	.quad	64
	.quad	.LC160
	.quad	.LC142
	.quad	0
	.quad	.LASANLOC25
	.quad	0
	.quad	cgi_pattern
	.quad	8
	.quad	64
	.quad	.LC161
	.quad	.LC142
	.quad	0
	.quad	.LASANLOC26
	.quad	0
	.quad	do_global_passwd
	.quad	4
	.quad	64
	.quad	.LC162
	.quad	.LC142
	.quad	0
	.quad	.LASANLOC27
	.quad	0
	.quad	do_vhost
	.quad	4
	.quad	64
	.quad	.LC163
	.quad	.LC142
	.quad	0
	.quad	.LASANLOC28
	.quad	0
	.quad	no_symlink_check
	.quad	4
	.quad	64
	.quad	.LC164
	.quad	.LC142
	.quad	0
	.quad	.LASANLOC29
	.quad	0
	.quad	no_log
	.quad	4
	.quad	64
	.quad	.LC165
	.quad	.LC142
	.quad	0
	.quad	.LASANLOC30
	.quad	0
	.quad	do_chroot
	.quad	4
	.quad	64
	.quad	.LC166
	.quad	.LC142
	.quad	0
	.quad	.LASANLOC31
	.quad	0
	.quad	data_dir
	.quad	8
	.quad	64
	.quad	.LC23
	.quad	.LC142
	.quad	0
	.quad	.LASANLOC32
	.quad	0
	.quad	dir
	.quad	8
	.quad	64
	.quad	.LC20
	.quad	.LC142
	.quad	0
	.quad	.LASANLOC33
	.quad	0
	.quad	port
	.quad	2
	.quad	64
	.quad	.LC19
	.quad	.LC142
	.quad	0
	.quad	.LASANLOC34
	.quad	0
	.quad	debug
	.quad	4
	.quad	64
	.quad	.LC18
	.quad	.LC142
	.quad	0
	.quad	.LASANLOC35
	.quad	0
	.quad	argv0
	.quad	8
	.quad	64
	.quad	.LC167
	.quad	.LC142
	.quad	0
	.quad	.LASANLOC36
	.quad	0
	.quad	.LC96
	.quad	35
	.quad	96
	.quad	.LC168
	.quad	.LC142
	.quad	0
	.quad	0
	.quad	0
	.quad	.LC117
	.quad	11
	.quad	64
	.quad	.LC169
	.quad	.LC142
	.quad	0
	.quad	0
	.quad	0
	.quad	.LC39
	.quad	13
	.quad	64
	.quad	.LC170
	.quad	.LC142
	.quad	0
	.quad	0
	.quad	0
	.quad	.LC84
	.quad	19
	.quad	64
	.quad	.LC171
	.quad	.LC142
	.quad	0
	.quad	0
	.quad	0
	.quad	.LC137
	.quad	16
	.quad	64
	.quad	.LC172
	.quad	.LC142
	.quad	0
	.quad	0
	.quad	0
	.quad	.LC79
	.quad	3
	.quad	64
	.quad	.LC173
	.quad	.LC142
	.quad	0
	.quad	0
	.quad	0
	.quad	.LC80
	.quad	39
	.quad	96
	.quad	.LC174
	.quad	.LC142
	.quad	0
	.quad	0
	.quad	0
	.quad	.LC1
	.quad	70
	.quad	128
	.quad	.LC175
	.quad	.LC142
	.quad	0
	.quad	0
	.quad	0
	.quad	.LC129
	.quad	20
	.quad	64
	.quad	.LC176
	.quad	.LC142
	.quad	0
	.quad	0
	.quad	0
	.quad	.LC132
	.quad	24
	.quad	64
	.quad	.LC177
	.quad	.LC142
	.quad	0
	.quad	0
	.quad	0
	.quad	.LC70
	.quad	3
	.quad	64
	.quad	.LC178
	.quad	.LC142
	.quad	0
	.quad	0
	.quad	0
	.quad	.LC35
	.quad	5
	.quad	64
	.quad	.LC179
	.quad	.LC142
	.quad	0
	.quad	0
	.quad	0
	.quad	.LC61
	.quad	3
	.quad	64
	.quad	.LC180
	.quad	.LC142
	.quad	0
	.quad	0
	.quad	0
	.quad	.LC76
	.quad	16
	.quad	64
	.quad	.LC181
	.quad	.LC142
	.quad	0
	.quad	0
	.quad	0
	.quad	.LC63
	.quad	3
	.quad	64
	.quad	.LC182
	.quad	.LC142
	.quad	0
	.quad	0
	.quad	0
	.quad	.LC83
	.quad	2
	.quad	64
	.quad	.LC183
	.quad	.LC142
	.quad	0
	.quad	0
	.quad	0
	.quad	.LC55
	.quad	3
	.quad	64
	.quad	.LC184
	.quad	.LC142
	.quad	0
	.quad	0
	.quad	0
	.quad	.LC124
	.quad	12
	.quad	64
	.quad	.LC185
	.quad	.LC142
	.quad	0
	.quad	0
	.quad	0
	.quad	.LC130
	.quad	15
	.quad	64
	.quad	.LC186
	.quad	.LC142
	.quad	0
	.quad	0
	.quad	0
	.quad	.LC36
	.quad	8
	.quad	64
	.quad	.LC187
	.quad	.LC142
	.quad	0
	.quad	0
	.quad	0
	.quad	.LC21
	.quad	7
	.quad	64
	.quad	.LC188
	.quad	.LC142
	.quad	0
	.quad	0
	.quad	0
	.quad	.LC32
	.quad	16
	.quad	64
	.quad	.LC189
	.quad	.LC142
	.quad	0
	.quad	0
	.quad	0
	.quad	.LC136
	.quad	12
	.quad	64
	.quad	.LC190
	.quad	.LC142
	.quad	0
	.quad	0
	.quad	0
	.quad	.LC56
	.quad	5
	.quad	64
	.quad	.LC191
	.quad	.LC142
	.quad	0
	.quad	0
	.quad	0
	.quad	.LC45
	.quad	32
	.quad	64
	.quad	.LC192
	.quad	.LC142
	.quad	0
	.quad	0
	.quad	0
	.quad	.LC104
	.quad	26
	.quad	64
	.quad	.LC193
	.quad	.LC142
	.quad	0
	.quad	0
	.quad	0
	.quad	.LC29
	.quad	7
	.quad	64
	.quad	.LC194
	.quad	.LC142
	.quad	0
	.quad	0
	.quad	0
	.quad	.LC6
	.quad	219
	.quad	256
	.quad	.LC195
	.quad	.LC142
	.quad	0
	.quad	0
	.quad	0
	.quad	.LC3
	.quad	65
	.quad	128
	.quad	.LC196
	.quad	.LC142
	.quad	0
	.quad	0
	.quad	0
	.quad	.LC108
	.quad	29
	.quad	64
	.quad	.LC197
	.quad	.LC142
	.quad	0
	.quad	0
	.quad	0
	.quad	.LC106
	.quad	39
	.quad	96
	.quad	.LC198
	.quad	.LC142
	.quad	0
	.quad	0
	.quad	0
	.quad	.LC82
	.quad	20
	.quad	64
	.quad	.LC199
	.quad	.LC142
	.quad	0
	.quad	0
	.quad	0
	.quad	.LC77
	.quad	33
	.quad	96
	.quad	.LC200
	.quad	.LC142
	.quad	0
	.quad	0
	.quad	0
	.quad	.LC116
	.quad	15
	.quad	64
	.quad	.LC201
	.quad	.LC142
	.quad	0
	.quad	0
	.quad	0
	.quad	.LC31
	.quad	7
	.quad	64
	.quad	.LC202
	.quad	.LC142
	.quad	0
	.quad	0
	.quad	0
	.quad	.LC40
	.quad	15
	.quad	64
	.quad	.LC203
	.quad	.LC142
	.quad	0
	.quad	0
	.quad	0
	.quad	.LC50
	.quad	3
	.quad	64
	.quad	.LC204
	.quad	.LC142
	.quad	0
	.quad	0
	.quad	0
	.quad	.LC57
	.quad	4
	.quad	64
	.quad	.LC205
	.quad	.LC142
	.quad	0
	.quad	0
	.quad	0
	.quad	.LC41
	.quad	8
	.quad	64
	.quad	.LC206
	.quad	.LC142
	.quad	0
	.quad	0
	.quad	0
	.quad	.LC119
	.quad	2
	.quad	64
	.quad	.LC207
	.quad	.LC142
	.quad	0
	.quad	0
	.quad	0
	.quad	.LC62
	.quad	3
	.quad	64
	.quad	.LC208
	.quad	.LC142
	.quad	0
	.quad	0
	.quad	0
	.quad	.LC30
	.quad	9
	.quad	64
	.quad	.LC209
	.quad	.LC142
	.quad	0
	.quad	0
	.quad	0
	.quad	.LC0
	.quad	104
	.quad	160
	.quad	.LC210
	.quad	.LC142
	.quad	0
	.quad	0
	.quad	0
	.quad	.LC85
	.quad	2
	.quad	64
	.quad	.LC211
	.quad	.LC142
	.quad	0
	.quad	0
	.quad	0
	.quad	.LC138
	.quad	12
	.quad	64
	.quad	.LC212
	.quad	.LC142
	.quad	0
	.quad	0
	.quad	0
	.quad	.LC122
	.quad	4
	.quad	64
	.quad	.LC213
	.quad	.LC142
	.quad	0
	.quad	0
	.quad	0
	.quad	.LC12
	.quad	16
	.quad	64
	.quad	.LC214
	.quad	.LC142
	.quad	0
	.quad	0
	.quad	0
	.quad	.LC47
	.quad	7
	.quad	64
	.quad	.LC215
	.quad	.LC142
	.quad	0
	.quad	0
	.quad	0
	.quad	.LC48
	.quad	11
	.quad	64
	.quad	.LC216
	.quad	.LC142
	.quad	0
	.quad	0
	.quad	0
	.quad	.LC103
	.quad	3
	.quad	64
	.quad	.LC217
	.quad	.LC142
	.quad	0
	.quad	0
	.quad	0
	.quad	.LC128
	.quad	13
	.quad	64
	.quad	.LC218
	.quad	.LC142
	.quad	0
	.quad	0
	.quad	0
	.quad	.LC43
	.quad	4
	.quad	64
	.quad	.LC219
	.quad	.LC142
	.quad	0
	.quad	0
	.quad	0
	.quad	.LC99
	.quad	37
	.quad	96
	.quad	.LC220
	.quad	.LC142
	.quad	0
	.quad	0
	.quad	0
	.quad	.LC19
	.quad	5
	.quad	64
	.quad	.LC221
	.quad	.LC142
	.quad	0
	.quad	0
	.quad	0
	.quad	.LC25
	.quad	10
	.quad	64
	.quad	.LC222
	.quad	.LC142
	.quad	0
	.quad	0
	.quad	0
	.quad	.LC127
	.quad	18
	.quad	64
	.quad	.LC223
	.quad	.LC142
	.quad	0
	.quad	0
	.quad	0
	.quad	.LC110
	.quad	23
	.quad	64
	.quad	.LC224
	.quad	.LC142
	.quad	0
	.quad	0
	.quad	0
	.quad	.LC111
	.quad	25
	.quad	64
	.quad	.LC225
	.quad	.LC142
	.quad	0
	.quad	0
	.quad	0
	.quad	.LC141
	.quad	13
	.quad	64
	.quad	.LC226
	.quad	.LC142
	.quad	0
	.quad	0
	.quad	0
	.quad	.LC20
	.quad	4
	.quad	64
	.quad	.LC227
	.quad	.LC142
	.quad	0
	.quad	0
	.quad	0
	.quad	.LC51
	.quad	26
	.quad	64
	.quad	.LC228
	.quad	.LC142
	.quad	0
	.quad	0
	.quad	0
	.quad	.LC73
	.quad	3
	.quad	64
	.quad	.LC229
	.quad	.LC142
	.quad	0
	.quad	0
	.quad	0
	.quad	.LC89
	.quad	39
	.quad	96
	.quad	.LC230
	.quad	.LC142
	.quad	0
	.quad	0
	.quad	0
	.quad	.LC67
	.quad	3
	.quad	64
	.quad	.LC231
	.quad	.LC142
	.quad	0
	.quad	0
	.quad	0
	.quad	.LC64
	.quad	3
	.quad	64
	.quad	.LC232
	.quad	.LC142
	.quad	0
	.quad	0
	.quad	0
	.quad	.LC65
	.quad	3
	.quad	64
	.quad	.LC233
	.quad	.LC142
	.quad	0
	.quad	0
	.quad	0
	.quad	.LC114
	.quad	72
	.quad	128
	.quad	.LC234
	.quad	.LC142
	.quad	0
	.quad	0
	.quad	0
	.quad	.LC16
	.quad	2
	.quad	64
	.quad	.LC235
	.quad	.LC142
	.quad	0
	.quad	0
	.quad	0
	.quad	.LC121
	.quad	2
	.quad	64
	.quad	.LC236
	.quad	.LC142
	.quad	0
	.quad	0
	.quad	0
	.quad	.LC120
	.quad	12
	.quad	64
	.quad	.LC237
	.quad	.LC142
	.quad	0
	.quad	0
	.quad	0
	.quad	.LC78
	.quad	38
	.quad	96
	.quad	.LC238
	.quad	.LC142
	.quad	0
	.quad	0
	.quad	0
	.quad	.LC123
	.quad	31
	.quad	64
	.quad	.LC239
	.quad	.LC142
	.quad	0
	.quad	0
	.quad	0
	.quad	.LC4
	.quad	37
	.quad	96
	.quad	.LC240
	.quad	.LC142
	.quad	0
	.quad	0
	.quad	0
	.quad	.LC125
	.quad	74
	.quad	128
	.quad	.LC241
	.quad	.LC142
	.quad	0
	.quad	0
	.quad	0
	.quad	.LC17
	.quad	5
	.quad	64
	.quad	.LC242
	.quad	.LC142
	.quad	0
	.quad	0
	.quad	0
	.quad	.LC68
	.quad	5
	.quad	64
	.quad	.LC243
	.quad	.LC142
	.quad	0
	.quad	0
	.quad	0
	.quad	.LC22
	.quad	9
	.quad	64
	.quad	.LC244
	.quad	.LC142
	.quad	0
	.quad	0
	.quad	0
	.quad	.LC42
	.quad	8
	.quad	64
	.quad	.LC245
	.quad	.LC142
	.quad	0
	.quad	0
	.quad	0
	.quad	.LC66
	.quad	5
	.quad	64
	.quad	.LC246
	.quad	.LC142
	.quad	0
	.quad	0
	.quad	0
	.quad	.LC26
	.quad	9
	.quad	64
	.quad	.LC247
	.quad	.LC142
	.quad	0
	.quad	0
	.quad	0
	.quad	.LC86
	.quad	22
	.quad	64
	.quad	.LC248
	.quad	.LC142
	.quad	0
	.quad	0
	.quad	0
	.quad	.LC33
	.quad	9
	.quad	64
	.quad	.LC249
	.quad	.LC142
	.quad	0
	.quad	0
	.quad	0
	.quad	.LC49
	.quad	1
	.quad	64
	.quad	.LC250
	.quad	.LC142
	.quad	0
	.quad	0
	.quad	0
	.quad	.LC118
	.quad	6
	.quad	64
	.quad	.LC251
	.quad	.LC142
	.quad	0
	.quad	0
	.quad	0
	.quad	.LC126
	.quad	79
	.quad	128
	.quad	.LC252
	.quad	.LC142
	.quad	0
	.quad	0
	.quad	0
	.quad	.LC105
	.quad	25
	.quad	64
	.quad	.LC253
	.quad	.LC142
	.quad	0
	.quad	0
	.quad	0
	.quad	.LC100
	.quad	25
	.quad	64
	.quad	.LC254
	.quad	.LC142
	.quad	0
	.quad	0
	.quad	0
	.quad	.LC139
	.quad	58
	.quad	96
	.quad	.LC255
	.quad	.LC142
	.quad	0
	.quad	0
	.quad	0
	.quad	.LC95
	.quad	35
	.quad	96
	.quad	.LC256
	.quad	.LC142
	.quad	0
	.quad	0
	.quad	0
	.quad	.LC75
	.quad	11
	.quad	64
	.quad	.LC257
	.quad	.LC142
	.quad	0
	.quad	0
	.quad	0
	.quad	.LC9
	.quad	39
	.quad	96
	.quad	.LC258
	.quad	.LC142
	.quad	0
	.quad	0
	.quad	0
	.quad	.LC134
	.quad	30
	.quad	64
	.quad	.LC259
	.quad	.LC142
	.quad	0
	.quad	0
	.quad	0
	.quad	.LC71
	.quad	3
	.quad	64
	.quad	.LC260
	.quad	.LC142
	.quad	0
	.quad	0
	.quad	0
	.quad	.LC81
	.quad	44
	.quad	96
	.quad	.LC261
	.quad	.LC142
	.quad	0
	.quad	0
	.quad	0
	.quad	.LC54
	.quad	3
	.quad	64
	.quad	.LC262
	.quad	.LC142
	.quad	0
	.quad	0
	.quad	0
	.quad	.LC69
	.quad	3
	.quad	64
	.quad	.LC263
	.quad	.LC142
	.quad	0
	.quad	0
	.quad	0
	.quad	.LC58
	.quad	3
	.quad	64
	.quad	.LC264
	.quad	.LC142
	.quad	0
	.quad	0
	.quad	0
	.quad	.LC135
	.quad	15
	.quad	64
	.quad	.LC265
	.quad	.LC142
	.quad	0
	.quad	0
	.quad	0
	.quad	.LC90
	.quad	56
	.quad	96
	.quad	.LC266
	.quad	.LC142
	.quad	0
	.quad	0
	.quad	0
	.quad	.LC140
	.quad	38
	.quad	96
	.quad	.LC267
	.quad	.LC142
	.quad	0
	.quad	0
	.quad	0
	.quad	.LC2
	.quad	62
	.quad	96
	.quad	.LC268
	.quad	.LC142
	.quad	0
	.quad	0
	.quad	0
	.quad	.LC93
	.quad	33
	.quad	96
	.quad	.LC269
	.quad	.LC142
	.quad	0
	.quad	0
	.quad	0
	.quad	.LC5
	.quad	34
	.quad	96
	.quad	.LC270
	.quad	.LC142
	.quad	0
	.quad	0
	.quad	0
	.quad	.LC94
	.quad	43
	.quad	96
	.quad	.LC271
	.quad	.LC142
	.quad	0
	.quad	0
	.quad	0
	.quad	.LC133
	.quad	36
	.quad	96
	.quad	.LC272
	.quad	.LC142
	.quad	0
	.quad	0
	.quad	0
	.quad	.LC98
	.quad	33
	.quad	96
	.quad	.LC273
	.quad	.LC142
	.quad	0
	.quad	0
	.quad	0
	.quad	.LC91
	.quad	8
	.quad	64
	.quad	.LC274
	.quad	.LC142
	.quad	0
	.quad	0
	.quad	0
	.quad	.LC23
	.quad	9
	.quad	64
	.quad	.LC275
	.quad	.LC142
	.quad	0
	.quad	0
	.quad	0
	.quad	.LC59
	.quad	5
	.quad	64
	.quad	.LC276
	.quad	.LC142
	.quad	0
	.quad	0
	.quad	0
	.quad	.LC10
	.quad	5
	.quad	64
	.quad	.LC277
	.quad	.LC142
	.quad	0
	.quad	0
	.quad	0
	.quad	.LC115
	.quad	20
	.quad	64
	.quad	.LC278
	.quad	.LC142
	.quad	0
	.quad	0
	.quad	0
	.quad	.LC112
	.quad	10
	.quad	64
	.quad	.LC279
	.quad	.LC142
	.quad	0
	.quad	0
	.quad	0
	.quad	.LC87
	.quad	22
	.quad	64
	.quad	.LC280
	.quad	.LC142
	.quad	0
	.quad	0
	.quad	0
	.quad	.LC34
	.quad	10
	.quad	64
	.quad	.LC281
	.quad	.LC142
	.quad	0
	.quad	0
	.quad	0
	.quad	.LC131
	.quad	30
	.quad	64
	.quad	.LC282
	.quad	.LC142
	.quad	0
	.quad	0
	.quad	0
	.quad	.LC44
	.quad	8
	.quad	64
	.quad	.LC283
	.quad	.LC142
	.quad	0
	.quad	0
	.quad	0
	.quad	.LC27
	.quad	11
	.quad	64
	.quad	.LC284
	.quad	.LC142
	.quad	0
	.quad	0
	.quad	0
	.quad	.LC88
	.quad	36
	.quad	96
	.quad	.LC285
	.quad	.LC142
	.quad	0
	.quad	0
	.quad	0
	.quad	.LC92
	.quad	25
	.quad	64
	.quad	.LC286
	.quad	.LC142
	.quad	0
	.quad	0
	.quad	0
	.quad	.LC52
	.quad	3
	.quad	64
	.quad	.LC287
	.quad	.LC142
	.quad	0
	.quad	0
	.quad	0
	.quad	.LC72
	.quad	3
	.quad	64
	.quad	.LC288
	.quad	.LC142
	.quad	0
	.quad	0
	.quad	0
	.quad	.LC38
	.quad	8
	.quad	64
	.quad	.LC289
	.quad	.LC142
	.quad	0
	.quad	0
	.quad	0
	.quad	.LC53
	.quad	3
	.quad	64
	.quad	.LC290
	.quad	.LC142
	.quad	0
	.quad	0
	.quad	0
	.quad	.LC60
	.quad	3
	.quad	64
	.quad	.LC291
	.quad	.LC142
	.quad	0
	.quad	0
	.quad	0
	.quad	.LC37
	.quad	6
	.quad	64
	.quad	.LC292
	.quad	.LC142
	.quad	0
	.quad	0
	.quad	0
	.quad	.LC28
	.quad	5
	.quad	64
	.quad	.LC293
	.quad	.LC142
	.quad	0
	.quad	0
	.quad	0
	.quad	.LC13
	.quad	31
	.quad	64
	.quad	.LC294
	.quad	.LC142
	.quad	0
	.quad	0
	.quad	0
	.quad	.LC14
	.quad	36
	.quad	96
	.quad	.LC295
	.quad	.LC142
	.quad	0
	.quad	0
	.quad	0
	.quad	.LC109
	.quad	34
	.quad	96
	.quad	.LC296
	.quad	.LC142
	.quad	0
	.quad	0
	.quad	0
	.quad	.LC24
	.quad	8
	.quad	64
	.quad	.LC297
	.quad	.LC142
	.quad	0
	.quad	0
	.quad	0
	.quad	.LC113
	.quad	67
	.quad	128
	.quad	.LC298
	.quad	.LC142
	.quad	0
	.quad	0
	.quad	0
	.quad	.LC18
	.quad	6
	.quad	64
	.quad	.LC299
	.quad	.LC142
	.quad	0
	.quad	0
	.quad	0
	.section	.text.exit,"ax",@progbits
	.p2align 4,,15
	.type	_GLOBAL__sub_D_00099_0_terminate, @function
_GLOBAL__sub_D_00099_0_terminate:
.LFB38:
	.cfi_startproc
	movl	$168, %esi
	movl	$.LASAN0, %edi
	jmp	__asan_unregister_globals
	.cfi_endproc
.LFE38:
	.size	_GLOBAL__sub_D_00099_0_terminate, .-_GLOBAL__sub_D_00099_0_terminate
	.section	.fini_array.00099,"aw"
	.align 8
	.quad	_GLOBAL__sub_D_00099_0_terminate
	.section	.text.startup
	.p2align 4,,15
	.type	_GLOBAL__sub_I_00099_1_terminate, @function
_GLOBAL__sub_I_00099_1_terminate:
.LFB39:
	.cfi_startproc
	subq	$8, %rsp
	.cfi_def_cfa_offset 16
	call	__asan_init
	call	__asan_version_mismatch_check_v8
	movl	$168, %esi
	movl	$.LASAN0, %edi
	addq	$8, %rsp
	.cfi_def_cfa_offset 8
	jmp	__asan_register_globals
	.cfi_endproc
.LFE39:
	.size	_GLOBAL__sub_I_00099_1_terminate, .-_GLOBAL__sub_I_00099_1_terminate
	.section	.init_array.00099,"aw"
	.align 8
	.quad	_GLOBAL__sub_I_00099_1_terminate
	.section	.rodata.cst16,"aM",@progbits,16
	.align 16
.LC46:
	.quad	-723401728380766731
	.quad	-723401728380766731
	.text
.Letext0:
	.file 2 "/usr/include/bits/types.h"
	.file 3 "/usr/include/sys/types.h"
	.file 4 "/usr/include/time.h"
	.file 5 "/usr/local/cs/gcc-8.2.0/lib/gcc/x86_64-pc-linux-gnu/8.2.0/include/stddef.h"
	.file 6 "/usr/include/bits/time.h"
	.file 7 "/usr/include/signal.h"
	.file 8 "/usr/include/bits/stat.h"
	.file 9 "/usr/include/bits/uio.h"
	.file 10 "/usr/include/pwd.h"
	.file 11 "/usr/include/stdio.h"
	.file 12 "/usr/include/libio.h"
	.file 13 "/usr/include/bits/sys_errlist.h"
	.file 14 "/usr/include/unistd.h"
	.file 15 "/usr/include/getopt.h"
	.file 16 "/usr/include/sys/time.h"
	.file 17 "/usr/include/bits/sockaddr.h"
	.file 18 "/usr/include/bits/socket.h"
	.file 19 "/usr/include/stdint.h"
	.file 20 "/usr/include/netinet/in.h"
	.file 21 "/usr/include/netdb.h"
	.file 22 "./libhttpd.h"
	.file 23 "./timers.h"
	.file 24 "/usr/include/sys/syslog.h"
	.file 25 "./mmc.h"
	.file 26 "./fdwatch.h"
	.file 27 "<built-in>"
	.file 28 "/usr/include/sys/socket.h"
	.file 29 "/usr/include/stdlib.h"
	.file 30 "./match.h"
	.file 31 "/usr/include/bits/errno.h"
	.file 32 "/usr/include/sys/uio.h"
	.file 33 "/usr/include/string.h"
	.file 34 "/usr/include/sys/stat.h"
	.file 35 "/usr/include/fcntl.h"
	.file 36 "/usr/include/grp.h"
	.file 37 "/usr/include/sys/wait.h"
	.file 38 "/usr/include/bits/socket_type.h"
	.section	.note.GNU-stack,"",@progbits
